(lp0
cfernpy
fern2
p1
(tRp2
(S'-12.5664 12.5664 -50 50 '
p3
I2
F0.8500000238418579
F0.10000000149011612
F0.25
(I00
S'0 2'
p4
(I00
S'0 1'
p5
(I00
S'1 1'
p6
(I00
S'1 2'
p7
(I00
S'0 1'
p8
(I01
I0
tp9
(I01
I1
tp10
tp11
(I00
S'0 2'
p12
(I01
I0
tp13
(I01
I1
tp14
tp15
tp16
(I00
S'0 2'
p17
(I01
I1
tp18
(I01
I1
tp19
tp20
tp21
(I00
S'1 1'
p22
(I01
I1
tp23
(I01
I2
tp24
tp25
tp26
(I00
S'1 2'
p27
(I00
S'0 2'
p28
(I00
S'0 2'
p29
(I01
I0
tp30
(I00
S'1 2'
p31
(I00
S'0 1'
p32
(I01
I2
tp33
(I01
I2
tp34
tp35
(I01
I0
tp36
tp37
tp38
(I00
S'0 1'
p39
(I01
I0
tp40
(I01
I0
tp41
tp42
tp43
(I00
S'0 1'
p44
(I00
S'0 2'
p45
(I01
I0
tp46
(I01
I1
tp47
tp48
(I00
S'0 1'
p49
(I00
S'0 1'
p50
(I00
S'0 2'
p51
(I01
I2
tp52
(I01
I1
tp53
tp54
(I00
S'0 2'
p55
(I01
I0
tp56
(I01
I2
tp57
tp58
tp59
(I00
S'0 1'
p60
(I00
S'0 2'
p61
(I01
I2
tp62
(I01
I2
tp63
tp64
(I00
S'1 1'
p65
(I01
I1
tp66
(I01
I2
tp67
tp68
tp69
tp70
tp71
tp72
tp73
tp74
bag1
(tRp75
(S'-12.5664 12.5664 -50 50 '
p76
I2
F0.8500000238418579
F0.10000000149011612
F0.25
(I00
S'0 2'
p77
(I00
S'0 1'
p78
(I00
S'1 1'
p79
(I00
S'1 2'
p80
(I00
S'0 1'
p81
(I01
I0
tp82
(I00
S'0 2'
p83
(I01
I0
tp84
(I01
I1
tp85
tp86
tp87
(I00
S'0 2'
p88
(I01
I2
tp89
(I01
I1
tp90
tp91
tp92
(I00
S'0 2'
p93
(I00
S'0 2'
p94
(I01
I1
tp95
(I01
I0
tp96
tp97
(I01
I0
tp98
tp99
tp100
(I00
S'1 1'
p101
(I01
I1
tp102
(I00
S'0 2'
p103
(I00
S'1 2'
p104
(I00
S'0 1'
p105
(I01
I0
tp106
(I00
S'1 1'
p107
(I01
I1
tp108
(I00
S'0 1'
p109
(I01
I0
tp110
(I01
I0
tp111
tp112
tp113
tp114
(I00
S'0 1'
p115
(I00
S'0 2'
p116
(I01
I2
tp117
(I01
I2
tp118
tp119
(I00
S'0 1'
p120
(I01
I2
tp121
(I01
I2
tp122
tp123
tp124
tp125
(I01
I2
tp126
tp127
tp128
tp129
(I00
S'1 1'
p130
(I00
S'0 2'
p131
(I00
S'0 2'
p132
(I00
S'0 1'
p133
(I00
S'1 1'
p134
(I00
S'1 1'
p135
(I01
I1
tp136
(I01
I1
tp137
tp138
(I01
I0
tp139
tp140
(I00
S'1 1'
p141
(I00
S'0 2'
p142
(I01
I0
tp143
(I01
I1
tp144
tp145
(I01
I0
tp146
tp147
tp148
(I00
S'0 1'
p149
(I00
S'0 1'
p150
(I01
I0
tp151
(I01
I1
tp152
tp153
(I00
S'1 1'
p154
(I01
I2
tp155
(I01
I1
tp156
tp157
tp158
tp159
(I00
S'0 1'
p160
(I01
I1
tp161
(I00
S'0 2'
p162
(I01
I2
tp163
(I00
S'0 2'
p164
(I00
S'1 2'
p165
(I01
I1
tp166
(I00
S'1 2'
p167
(I01
I2
tp168
(I01
I2
tp169
tp170
tp171
(I00
S'1 2'
p172
(I01
I0
tp173
(I01
I0
tp174
tp175
tp176
tp177
tp178
tp179
(I00
S'0 2'
p180
(I00
S'0 1'
p181
(I01
I2
tp182
(I00
S'1 1'
p183
(I00
S'0 1'
p184
(I00
S'1 2'
p185
(I01
I0
tp186
(I01
I1
tp187
tp188
(I00
S'1 1'
p189
(I01
I1
tp190
(I01
I1
tp191
tp192
tp193
(I00
S'1 2'
p194
(I00
S'1 1'
p195
(I01
I1
tp196
(I01
I1
tp197
tp198
(I00
S'0 1'
p199
(I01
I1
tp200
(I01
I1
tp201
tp202
tp203
tp204
tp205
(I00
S'0 1'
p206
(I00
S'0 2'
p207
(I00
S'0 2'
p208
(I00
S'1 1'
p209
(I01
I0
tp210
(I00
S'1 1'
p211
(I01
I2
tp212
(I01
I2
tp213
tp214
tp215
(I00
S'1 2'
p216
(I01
I0
tp217
(I01
I0
tp218
tp219
tp220
(I00
S'0 2'
p221
(I01
I0
tp222
(I00
S'1 1'
p223
(I00
S'0 1'
p224
(I01
I2
tp225
(I01
I0
tp226
tp227
(I01
I1
tp228
tp229
tp230
tp231
(I00
S'1 1'
p232
(I00
S'0 2'
p233
(I01
I2
tp234
(I01
I2
tp235
tp236
(I00
S'1 1'
p237
(I00
S'1 2'
p238
(I01
I1
tp239
(I01
I1
tp240
tp241
(I00
S'0 1'
p242
(I00
S'1 1'
p243
(I01
I2
tp244
(I01
I0
tp245
tp246
(I00
S'1 2'
p247
(I01
I1
tp248
(I01
I1
tp249
tp250
tp251
tp252
tp253
tp254
tp255
tp256
tp257
tp258
bag1
(tRp259
(S'-12.5664 12.5664 -50 50 '
p260
I2
F0.8500000238418579
F0.10000000149011612
F0.25
(I00
S'0 2'
p261
(I00
S'0 1'
p262
(I00
S'1 1'
p263
(I00
S'1 2'
p264
(I00
S'0 1'
p265
(I01
I0
tp266
(I00
S'0 2'
p267
(I01
I0
tp268
(I01
I1
tp269
tp270
tp271
(I00
S'0 2'
p272
(I01
I2
tp273
(I01
I1
tp274
tp275
tp276
(I00
S'0 2'
p277
(I00
S'0 2'
p278
(I01
I1
tp279
(I01
I0
tp280
tp281
(I01
I0
tp282
tp283
tp284
(I00
S'1 1'
p285
(I01
I1
tp286
(I00
S'0 2'
p287
(I00
S'1 2'
p288
(I00
S'0 1'
p289
(I01
I0
tp290
(I00
S'1 1'
p291
(I01
I1
tp292
(I00
S'0 1'
p293
(I01
I0
tp294
(I01
I0
tp295
tp296
tp297
tp298
(I00
S'0 1'
p299
(I00
S'0 2'
p300
(I01
I2
tp301
(I01
I2
tp302
tp303
(I00
S'0 1'
p304
(I01
I2
tp305
(I01
I2
tp306
tp307
tp308
tp309
(I01
I2
tp310
tp311
tp312
tp313
(I00
S'1 1'
p314
(I00
S'0 2'
p315
(I00
S'0 2'
p316
(I00
S'0 1'
p317
(I00
S'1 1'
p318
(I00
S'1 1'
p319
(I01
I1
tp320
(I01
I1
tp321
tp322
(I01
I0
tp323
tp324
(I00
S'1 1'
p325
(I00
S'0 2'
p326
(I01
I0
tp327
(I01
I1
tp328
tp329
(I01
I0
tp330
tp331
tp332
(I00
S'0 1'
p333
(I00
S'0 1'
p334
(I01
I0
tp335
(I01
I1
tp336
tp337
(I00
S'1 1'
p338
(I01
I2
tp339
(I01
I1
tp340
tp341
tp342
tp343
(I00
S'0 1'
p344
(I01
I1
tp345
(I00
S'0 2'
p346
(I01
I2
tp347
(I00
S'0 2'
p348
(I00
S'1 2'
p349
(I01
I1
tp350
(I00
S'1 2'
p351
(I01
I2
tp352
(I01
I2
tp353
tp354
tp355
(I00
S'1 2'
p356
(I01
I0
tp357
(I01
I0
tp358
tp359
tp360
tp361
tp362
tp363
(I00
S'0 2'
p364
(I00
S'0 1'
p365
(I01
I2
tp366
(I00
S'1 1'
p367
(I00
S'0 1'
p368
(I00
S'1 2'
p369
(I01
I0
tp370
(I01
I0
tp371
tp372
(I00
S'1 1'
p373
(I01
I0
tp374
(I01
I1
tp375
tp376
tp377
(I00
S'1 2'
p378
(I00
S'1 1'
p379
(I01
I1
tp380
(I01
I1
tp381
tp382
(I00
S'0 1'
p383
(I01
I1
tp384
(I01
I1
tp385
tp386
tp387
tp388
tp389
(I00
S'0 1'
p390
(I00
S'0 2'
p391
(I00
S'0 2'
p392
(I00
S'1 1'
p393
(I01
I0
tp394
(I00
S'1 1'
p395
(I01
I2
tp396
(I01
I2
tp397
tp398
tp399
(I00
S'1 2'
p400
(I01
I1
tp401
(I01
I0
tp402
tp403
tp404
(I00
S'0 2'
p405
(I01
I0
tp406
(I00
S'1 1'
p407
(I00
S'0 1'
p408
(I01
I2
tp409
(I01
I0
tp410
tp411
(I01
I1
tp412
tp413
tp414
tp415
(I00
S'1 1'
p416
(I00
S'0 2'
p417
(I01
I2
tp418
(I01
I2
tp419
tp420
(I00
S'1 1'
p421
(I00
S'1 2'
p422
(I01
I1
tp423
(I01
I1
tp424
tp425
(I00
S'0 1'
p426
(I00
S'1 1'
p427
(I01
I2
tp428
(I00
S'1 1'
p429
(I01
I0
tp430
(I01
I0
tp431
tp432
tp433
(I00
S'1 2'
p434
(I01
I1
tp435
(I01
I1
tp436
tp437
tp438
tp439
tp440
tp441
tp442
tp443
tp444
tp445
bag1
(tRp446
(S'-12.5664 12.5664 -50 50 '
p447
I2
F0.8500000238418579
F0.10000000149011612
F0.25
(I00
S'0 2'
p448
(I00
S'0 1'
p449
(I00
S'1 1'
p450
(I00
S'1 2'
p451
(I00
S'0 1'
p452
(I01
I0
tp453
(I00
S'0 2'
p454
(I01
I0
tp455
(I01
I1
tp456
tp457
tp458
(I00
S'0 2'
p459
(I01
I2
tp460
(I01
I1
tp461
tp462
tp463
(I00
S'0 2'
p464
(I00
S'0 2'
p465
(I01
I1
tp466
(I01
I0
tp467
tp468
(I01
I0
tp469
tp470
tp471
(I00
S'1 1'
p472
(I01
I1
tp473
(I00
S'0 2'
p474
(I00
S'1 2'
p475
(I00
S'0 1'
p476
(I01
I0
tp477
(I00
S'1 1'
p478
(I01
I1
tp479
(I00
S'0 1'
p480
(I01
I0
tp481
(I01
I0
tp482
tp483
tp484
tp485
(I00
S'0 1'
p486
(I00
S'0 2'
p487
(I01
I2
tp488
(I01
I2
tp489
tp490
(I00
S'0 1'
p491
(I01
I2
tp492
(I01
I2
tp493
tp494
tp495
tp496
(I01
I2
tp497
tp498
tp499
tp500
(I00
S'1 1'
p501
(I00
S'0 2'
p502
(I00
S'0 2'
p503
(I00
S'0 1'
p504
(I00
S'1 1'
p505
(I00
S'1 1'
p506
(I01
I1
tp507
(I01
I1
tp508
tp509
(I01
I0
tp510
tp511
(I00
S'1 1'
p512
(I00
S'0 2'
p513
(I01
I0
tp514
(I01
I1
tp515
tp516
(I01
I0
tp517
tp518
tp519
(I00
S'0 1'
p520
(I00
S'0 1'
p521
(I01
I0
tp522
(I01
I1
tp523
tp524
(I00
S'1 1'
p525
(I01
I2
tp526
(I01
I1
tp527
tp528
tp529
tp530
(I00
S'0 1'
p531
(I01
I1
tp532
(I00
S'0 2'
p533
(I01
I2
tp534
(I00
S'0 2'
p535
(I00
S'1 2'
p536
(I01
I1
tp537
(I00
S'1 2'
p538
(I01
I2
tp539
(I01
I2
tp540
tp541
tp542
(I00
S'1 2'
p543
(I01
I0
tp544
(I01
I0
tp545
tp546
tp547
tp548
tp549
tp550
(I00
S'0 2'
p551
(I00
S'0 1'
p552
(I01
I2
tp553
(I00
S'1 1'
p554
(I00
S'0 1'
p555
(I00
S'1 2'
p556
(I01
I0
tp557
(I01
I0
tp558
tp559
(I00
S'1 1'
p560
(I01
I1
tp561
(I01
I1
tp562
tp563
tp564
(I00
S'1 2'
p565
(I00
S'1 1'
p566
(I01
I1
tp567
(I01
I1
tp568
tp569
(I00
S'0 1'
p570
(I01
I1
tp571
(I01
I1
tp572
tp573
tp574
tp575
tp576
(I00
S'0 1'
p577
(I00
S'0 2'
p578
(I00
S'0 2'
p579
(I00
S'1 1'
p580
(I01
I0
tp581
(I00
S'1 1'
p582
(I01
I2
tp583
(I01
I2
tp584
tp585
tp586
(I00
S'1 2'
p587
(I01
I0
tp588
(I01
I0
tp589
tp590
tp591
(I00
S'0 2'
p592
(I01
I0
tp593
(I00
S'1 1'
p594
(I00
S'0 1'
p595
(I01
I2
tp596
(I01
I0
tp597
tp598
(I01
I1
tp599
tp600
tp601
tp602
(I00
S'1 1'
p603
(I00
S'0 2'
p604
(I01
I2
tp605
(I01
I2
tp606
tp607
(I00
S'1 1'
p608
(I00
S'1 2'
p609
(I01
I1
tp610
(I01
I1
tp611
tp612
(I00
S'0 1'
p613
(I00
S'1 1'
p614
(I01
I2
tp615
(I01
I0
tp616
tp617
(I00
S'1 2'
p618
(I01
I1
tp619
(I01
I1
tp620
tp621
tp622
tp623
tp624
tp625
tp626
tp627
tp628
tp629
bag1
(tRp630
(S'-12.5664 12.5664 -50 50 '
p631
I2
F0.8500000238418579
F0.10000000149011612
F0.25
(I00
S'0 2'
p632
(I00
S'0 1'
p633
(I00
S'1 1'
p634
(I00
S'1 2'
p635
(I00
S'0 1'
p636
(I01
I0
tp637
(I00
S'0 2'
p638
(I01
I0
tp639
(I01
I1
tp640
tp641
tp642
(I00
S'0 2'
p643
(I01
I2
tp644
(I01
I1
tp645
tp646
tp647
(I00
S'0 2'
p648
(I00
S'0 2'
p649
(I01
I1
tp650
(I01
I0
tp651
tp652
(I01
I0
tp653
tp654
tp655
(I00
S'1 1'
p656
(I01
I1
tp657
(I00
S'0 2'
p658
(I00
S'1 2'
p659
(I00
S'0 1'
p660
(I01
I0
tp661
(I00
S'1 1'
p662
(I01
I1
tp663
(I00
S'0 1'
p664
(I01
I0
tp665
(I01
I0
tp666
tp667
tp668
tp669
(I00
S'0 1'
p670
(I00
S'0 2'
p671
(I01
I2
tp672
(I01
I2
tp673
tp674
(I00
S'0 1'
p675
(I01
I2
tp676
(I01
I2
tp677
tp678
tp679
tp680
(I01
I2
tp681
tp682
tp683
tp684
(I00
S'1 1'
p685
(I00
S'0 2'
p686
(I00
S'0 2'
p687
(I00
S'0 1'
p688
(I00
S'1 1'
p689
(I00
S'1 1'
p690
(I01
I1
tp691
(I01
I1
tp692
tp693
(I01
I0
tp694
tp695
(I00
S'1 1'
p696
(I00
S'0 2'
p697
(I01
I0
tp698
(I01
I1
tp699
tp700
(I01
I0
tp701
tp702
tp703
(I00
S'0 1'
p704
(I00
S'0 1'
p705
(I01
I0
tp706
(I01
I1
tp707
tp708
(I00
S'1 1'
p709
(I01
I2
tp710
(I01
I1
tp711
tp712
tp713
tp714
(I00
S'0 1'
p715
(I01
I1
tp716
(I00
S'0 2'
p717
(I01
I2
tp718
(I00
S'0 2'
p719
(I00
S'1 2'
p720
(I01
I1
tp721
(I00
S'1 2'
p722
(I01
I2
tp723
(I01
I2
tp724
tp725
tp726
(I00
S'1 2'
p727
(I01
I0
tp728
(I01
I0
tp729
tp730
tp731
tp732
tp733
tp734
(I00
S'0 2'
p735
(I00
S'0 1'
p736
(I01
I2
tp737
(I00
S'1 1'
p738
(I00
S'0 1'
p739
(I00
S'1 2'
p740
(I01
I0
tp741
(I01
I0
tp742
tp743
(I00
S'1 1'
p744
(I01
I0
tp745
(I01
I1
tp746
tp747
tp748
(I00
S'1 2'
p749
(I00
S'1 1'
p750
(I01
I1
tp751
(I01
I1
tp752
tp753
(I00
S'0 1'
p754
(I01
I1
tp755
(I01
I1
tp756
tp757
tp758
tp759
tp760
(I00
S'0 1'
p761
(I00
S'0 2'
p762
(I00
S'0 2'
p763
(I00
S'1 1'
p764
(I01
I0
tp765
(I00
S'1 1'
p766
(I01
I2
tp767
(I01
I2
tp768
tp769
tp770
(I00
S'1 2'
p771
(I01
I1
tp772
(I01
I0
tp773
tp774
tp775
(I00
S'0 2'
p776
(I01
I0
tp777
(I00
S'1 1'
p778
(I00
S'0 1'
p779
(I01
I2
tp780
(I01
I0
tp781
tp782
(I01
I1
tp783
tp784
tp785
tp786
(I00
S'1 1'
p787
(I00
S'0 2'
p788
(I01
I2
tp789
(I01
I2
tp790
tp791
(I00
S'1 1'
p792
(I00
S'1 2'
p793
(I01
I1
tp794
(I01
I1
tp795
tp796
(I00
S'0 1'
p797
(I00
S'1 1'
p798
(I01
I2
tp799
(I00
S'1 1'
p800
(I01
I0
tp801
(I01
I0
tp802
tp803
tp804
(I00
S'1 2'
p805
(I01
I1
tp806
(I01
I1
tp807
tp808
tp809
tp810
tp811
tp812
tp813
tp814
tp815
tp816
bag1
(tRp817
(S'-12.5664 12.5664 -50 50 '
p818
I2
F0.8500000238418579
F0.10000000149011612
F0.25
(I00
S'0 2'
p819
(I00
S'0 1'
p820
(I00
S'1 1'
p821
(I00
S'1 2'
p822
(I00
S'0 1'
p823
(I01
I0
tp824
(I00
S'0 2'
p825
(I01
I0
tp826
(I01
I1
tp827
tp828
tp829
(I00
S'0 2'
p830
(I01
I2
tp831
(I01
I1
tp832
tp833
tp834
(I00
S'0 2'
p835
(I00
S'0 2'
p836
(I01
I1
tp837
(I01
I0
tp838
tp839
(I01
I0
tp840
tp841
tp842
(I00
S'1 1'
p843
(I01
I1
tp844
(I00
S'0 2'
p845
(I00
S'1 2'
p846
(I00
S'0 1'
p847
(I01
I0
tp848
(I00
S'1 1'
p849
(I01
I1
tp850
(I00
S'0 1'
p851
(I01
I0
tp852
(I01
I0
tp853
tp854
tp855
tp856
(I00
S'0 1'
p857
(I00
S'0 2'
p858
(I01
I2
tp859
(I01
I2
tp860
tp861
(I00
S'0 1'
p862
(I01
I2
tp863
(I01
I2
tp864
tp865
tp866
tp867
(I01
I2
tp868
tp869
tp870
tp871
(I00
S'1 1'
p872
(I00
S'0 2'
p873
(I00
S'0 2'
p874
(I00
S'0 1'
p875
(I00
S'1 1'
p876
(I00
S'1 1'
p877
(I01
I1
tp878
(I01
I1
tp879
tp880
(I01
I0
tp881
tp882
(I00
S'1 1'
p883
(I00
S'0 2'
p884
(I01
I0
tp885
(I01
I1
tp886
tp887
(I01
I0
tp888
tp889
tp890
(I00
S'0 1'
p891
(I00
S'0 1'
p892
(I01
I0
tp893
(I01
I1
tp894
tp895
(I00
S'1 1'
p896
(I01
I2
tp897
(I01
I1
tp898
tp899
tp900
tp901
(I00
S'0 1'
p902
(I01
I1
tp903
(I00
S'0 2'
p904
(I01
I2
tp905
(I00
S'0 2'
p906
(I00
S'1 2'
p907
(I01
I1
tp908
(I00
S'1 2'
p909
(I01
I2
tp910
(I01
I2
tp911
tp912
tp913
(I00
S'1 2'
p914
(I01
I0
tp915
(I01
I0
tp916
tp917
tp918
tp919
tp920
tp921
(I00
S'0 2'
p922
(I00
S'0 1'
p923
(I01
I2
tp924
(I00
S'1 1'
p925
(I00
S'0 1'
p926
(I00
S'1 2'
p927
(I01
I0
tp928
(I01
I0
tp929
tp930
(I00
S'1 1'
p931
(I01
I1
tp932
(I01
I1
tp933
tp934
tp935
(I00
S'1 2'
p936
(I00
S'1 1'
p937
(I01
I1
tp938
(I01
I1
tp939
tp940
(I00
S'0 1'
p941
(I01
I1
tp942
(I01
I1
tp943
tp944
tp945
tp946
tp947
(I00
S'0 1'
p948
(I00
S'0 2'
p949
(I00
S'0 2'
p950
(I00
S'1 1'
p951
(I01
I0
tp952
(I00
S'1 1'
p953
(I01
I2
tp954
(I01
I1
tp955
tp956
tp957
(I00
S'1 2'
p958
(I01
I0
tp959
(I01
I0
tp960
tp961
tp962
(I00
S'0 2'
p963
(I01
I0
tp964
(I00
S'1 1'
p965
(I00
S'0 1'
p966
(I01
I2
tp967
(I01
I0
tp968
tp969
(I01
I1
tp970
tp971
tp972
tp973
(I00
S'1 1'
p974
(I00
S'0 2'
p975
(I01
I2
tp976
(I01
I2
tp977
tp978
(I00
S'1 1'
p979
(I00
S'1 2'
p980
(I01
I1
tp981
(I01
I1
tp982
tp983
(I00
S'0 1'
p984
(I00
S'1 1'
p985
(I01
I2
tp986
(I01
I0
tp987
tp988
(I00
S'1 2'
p989
(I01
I1
tp990
(I01
I1
tp991
tp992
tp993
tp994
tp995
tp996
tp997
tp998
tp999
tp1000
bag1
(tRp1001
(S'-12.5664 12.5664 -50 50 '
p1002
I2
F0.8500000238418579
F0.10000000149011612
F0.25
(I00
S'0 2'
p1003
(I00
S'0 1'
p1004
(I00
S'1 1'
p1005
(I00
S'1 2'
p1006
(I00
S'0 1'
p1007
(I01
I0
tp1008
(I00
S'0 2'
p1009
(I01
I0
tp1010
(I01
I1
tp1011
tp1012
tp1013
(I00
S'0 2'
p1014
(I01
I2
tp1015
(I01
I1
tp1016
tp1017
tp1018
(I00
S'0 2'
p1019
(I00
S'0 2'
p1020
(I01
I1
tp1021
(I01
I0
tp1022
tp1023
(I01
I0
tp1024
tp1025
tp1026
(I00
S'1 1'
p1027
(I01
I1
tp1028
(I00
S'0 2'
p1029
(I00
S'1 2'
p1030
(I00
S'0 1'
p1031
(I01
I0
tp1032
(I00
S'1 1'
p1033
(I01
I1
tp1034
(I00
S'0 1'
p1035
(I01
I0
tp1036
(I01
I0
tp1037
tp1038
tp1039
tp1040
(I00
S'0 1'
p1041
(I00
S'0 2'
p1042
(I01
I2
tp1043
(I01
I2
tp1044
tp1045
(I00
S'0 1'
p1046
(I01
I2
tp1047
(I01
I2
tp1048
tp1049
tp1050
tp1051
(I01
I2
tp1052
tp1053
tp1054
tp1055
(I00
S'1 1'
p1056
(I00
S'0 2'
p1057
(I00
S'0 2'
p1058
(I00
S'0 1'
p1059
(I00
S'1 1'
p1060
(I00
S'1 1'
p1061
(I01
I1
tp1062
(I01
I1
tp1063
tp1064
(I01
I0
tp1065
tp1066
(I00
S'1 1'
p1067
(I00
S'0 2'
p1068
(I01
I1
tp1069
(I01
I1
tp1070
tp1071
(I01
I0
tp1072
tp1073
tp1074
(I00
S'0 1'
p1075
(I00
S'0 1'
p1076
(I01
I0
tp1077
(I01
I1
tp1078
tp1079
(I00
S'1 1'
p1080
(I01
I2
tp1081
(I01
I1
tp1082
tp1083
tp1084
tp1085
(I00
S'0 1'
p1086
(I01
I1
tp1087
(I00
S'0 2'
p1088
(I01
I2
tp1089
(I00
S'0 2'
p1090
(I00
S'1 2'
p1091
(I01
I1
tp1092
(I00
S'1 2'
p1093
(I01
I2
tp1094
(I01
I2
tp1095
tp1096
tp1097
(I00
S'1 2'
p1098
(I01
I0
tp1099
(I01
I0
tp1100
tp1101
tp1102
tp1103
tp1104
tp1105
(I00
S'0 2'
p1106
(I00
S'0 1'
p1107
(I01
I2
tp1108
(I00
S'1 1'
p1109
(I00
S'0 1'
p1110
(I00
S'1 2'
p1111
(I01
I0
tp1112
(I01
I0
tp1113
tp1114
(I00
S'1 1'
p1115
(I01
I1
tp1116
(I01
I1
tp1117
tp1118
tp1119
(I00
S'1 2'
p1120
(I00
S'1 1'
p1121
(I01
I1
tp1122
(I01
I1
tp1123
tp1124
(I00
S'0 1'
p1125
(I01
I1
tp1126
(I01
I1
tp1127
tp1128
tp1129
tp1130
tp1131
(I00
S'0 1'
p1132
(I00
S'0 2'
p1133
(I00
S'0 2'
p1134
(I00
S'1 1'
p1135
(I01
I0
tp1136
(I00
S'1 1'
p1137
(I01
I2
tp1138
(I01
I2
tp1139
tp1140
tp1141
(I00
S'1 2'
p1142
(I01
I0
tp1143
(I01
I0
tp1144
tp1145
tp1146
(I00
S'0 2'
p1147
(I01
I0
tp1148
(I00
S'1 1'
p1149
(I00
S'0 1'
p1150
(I01
I2
tp1151
(I01
I0
tp1152
tp1153
(I01
I1
tp1154
tp1155
tp1156
tp1157
(I00
S'1 1'
p1158
(I00
S'0 2'
p1159
(I01
I2
tp1160
(I01
I2
tp1161
tp1162
(I00
S'1 1'
p1163
(I00
S'1 2'
p1164
(I01
I1
tp1165
(I01
I1
tp1166
tp1167
(I00
S'0 1'
p1168
(I00
S'1 1'
p1169
(I01
I2
tp1170
(I01
I2
tp1171
tp1172
(I00
S'1 2'
p1173
(I01
I1
tp1174
(I01
I1
tp1175
tp1176
tp1177
tp1178
tp1179
tp1180
tp1181
tp1182
tp1183
tp1184
bag1
(tRp1185
(S'-12.5664 12.5664 -50 50 '
p1186
I2
F0.8500000238418579
F0.10000000149011612
F0.25
(I00
S'0 2'
p1187
(I00
S'0 1'
p1188
(I00
S'1 1'
p1189
(I00
S'1 2'
p1190
(I00
S'0 1'
p1191
(I01
I0
tp1192
(I00
S'0 2'
p1193
(I01
I0
tp1194
(I01
I1
tp1195
tp1196
tp1197
(I00
S'0 2'
p1198
(I01
I2
tp1199
(I01
I1
tp1200
tp1201
tp1202
(I00
S'0 2'
p1203
(I00
S'0 2'
p1204
(I01
I1
tp1205
(I01
I0
tp1206
tp1207
(I01
I0
tp1208
tp1209
tp1210
(I00
S'1 1'
p1211
(I01
I2
tp1212
(I00
S'0 2'
p1213
(I00
S'1 2'
p1214
(I00
S'0 1'
p1215
(I01
I0
tp1216
(I00
S'1 1'
p1217
(I01
I1
tp1218
(I00
S'0 1'
p1219
(I01
I0
tp1220
(I01
I0
tp1221
tp1222
tp1223
tp1224
(I00
S'0 1'
p1225
(I00
S'0 2'
p1226
(I01
I2
tp1227
(I01
I2
tp1228
tp1229
(I00
S'0 1'
p1230
(I01
I2
tp1231
(I01
I2
tp1232
tp1233
tp1234
tp1235
(I01
I2
tp1236
tp1237
tp1238
tp1239
(I00
S'1 1'
p1240
(I00
S'0 2'
p1241
(I00
S'0 2'
p1242
(I00
S'0 1'
p1243
(I00
S'1 1'
p1244
(I00
S'1 1'
p1245
(I01
I1
tp1246
(I01
I1
tp1247
tp1248
(I01
I0
tp1249
tp1250
(I00
S'1 1'
p1251
(I00
S'0 2'
p1252
(I01
I0
tp1253
(I01
I1
tp1254
tp1255
(I01
I0
tp1256
tp1257
tp1258
(I00
S'0 1'
p1259
(I00
S'0 1'
p1260
(I01
I0
tp1261
(I01
I1
tp1262
tp1263
(I00
S'1 1'
p1264
(I01
I2
tp1265
(I01
I1
tp1266
tp1267
tp1268
tp1269
(I00
S'0 1'
p1270
(I01
I1
tp1271
(I00
S'0 2'
p1272
(I01
I2
tp1273
(I00
S'0 2'
p1274
(I00
S'1 2'
p1275
(I01
I1
tp1276
(I00
S'1 2'
p1277
(I01
I2
tp1278
(I01
I2
tp1279
tp1280
tp1281
(I00
S'1 2'
p1282
(I01
I0
tp1283
(I01
I0
tp1284
tp1285
tp1286
tp1287
tp1288
tp1289
(I00
S'0 2'
p1290
(I00
S'0 1'
p1291
(I01
I2
tp1292
(I00
S'1 1'
p1293
(I00
S'0 1'
p1294
(I00
S'1 2'
p1295
(I01
I0
tp1296
(I01
I0
tp1297
tp1298
(I00
S'1 1'
p1299
(I01
I0
tp1300
(I01
I1
tp1301
tp1302
tp1303
(I00
S'1 2'
p1304
(I00
S'1 1'
p1305
(I01
I1
tp1306
(I01
I1
tp1307
tp1308
(I00
S'0 1'
p1309
(I01
I1
tp1310
(I01
I1
tp1311
tp1312
tp1313
tp1314
tp1315
(I00
S'0 1'
p1316
(I00
S'0 2'
p1317
(I00
S'0 2'
p1318
(I00
S'1 1'
p1319
(I01
I0
tp1320
(I00
S'1 1'
p1321
(I01
I2
tp1322
(I01
I2
tp1323
tp1324
tp1325
(I00
S'1 2'
p1326
(I01
I1
tp1327
(I01
I0
tp1328
tp1329
tp1330
(I00
S'0 2'
p1331
(I01
I0
tp1332
(I00
S'1 1'
p1333
(I00
S'0 1'
p1334
(I01
I2
tp1335
(I01
I0
tp1336
tp1337
(I01
I1
tp1338
tp1339
tp1340
tp1341
(I00
S'1 1'
p1342
(I00
S'0 2'
p1343
(I01
I2
tp1344
(I01
I2
tp1345
tp1346
(I00
S'1 1'
p1347
(I00
S'1 2'
p1348
(I01
I1
tp1349
(I01
I1
tp1350
tp1351
(I00
S'0 1'
p1352
(I00
S'1 1'
p1353
(I01
I2
tp1354
(I01
I0
tp1355
tp1356
(I00
S'1 2'
p1357
(I01
I1
tp1358
(I01
I1
tp1359
tp1360
tp1361
tp1362
tp1363
tp1364
tp1365
tp1366
tp1367
tp1368
bag1
(tRp1369
(S'-12.5664 12.5664 -50 50 '
p1370
I2
F0.8500000238418579
F0.10000000149011612
F0.25
(I00
S'0 2'
p1371
(I00
S'0 1'
p1372
(I00
S'1 1'
p1373
(I00
S'1 2'
p1374
(I00
S'0 1'
p1375
(I01
I0
tp1376
(I00
S'0 2'
p1377
(I01
I0
tp1378
(I01
I1
tp1379
tp1380
tp1381
(I00
S'0 2'
p1382
(I01
I2
tp1383
(I01
I1
tp1384
tp1385
tp1386
(I00
S'0 2'
p1387
(I00
S'0 2'
p1388
(I01
I1
tp1389
(I01
I0
tp1390
tp1391
(I01
I0
tp1392
tp1393
tp1394
(I00
S'1 1'
p1395
(I01
I1
tp1396
(I00
S'0 2'
p1397
(I00
S'1 2'
p1398
(I00
S'0 1'
p1399
(I01
I0
tp1400
(I00
S'1 1'
p1401
(I01
I1
tp1402
(I00
S'0 1'
p1403
(I01
I0
tp1404
(I01
I0
tp1405
tp1406
tp1407
tp1408
(I00
S'0 1'
p1409
(I00
S'0 2'
p1410
(I01
I2
tp1411
(I01
I2
tp1412
tp1413
(I00
S'0 1'
p1414
(I01
I2
tp1415
(I01
I2
tp1416
tp1417
tp1418
tp1419
(I01
I2
tp1420
tp1421
tp1422
tp1423
(I00
S'1 1'
p1424
(I00
S'0 2'
p1425
(I00
S'0 2'
p1426
(I00
S'0 1'
p1427
(I00
S'1 1'
p1428
(I00
S'1 1'
p1429
(I01
I1
tp1430
(I01
I1
tp1431
tp1432
(I01
I0
tp1433
tp1434
(I00
S'1 1'
p1435
(I00
S'0 2'
p1436
(I01
I0
tp1437
(I01
I1
tp1438
tp1439
(I01
I0
tp1440
tp1441
tp1442
(I00
S'0 1'
p1443
(I00
S'0 1'
p1444
(I01
I0
tp1445
(I01
I1
tp1446
tp1447
(I00
S'1 1'
p1448
(I01
I2
tp1449
(I01
I1
tp1450
tp1451
tp1452
tp1453
(I00
S'0 1'
p1454
(I01
I1
tp1455
(I00
S'0 2'
p1456
(I01
I2
tp1457
(I00
S'0 2'
p1458
(I00
S'1 2'
p1459
(I01
I1
tp1460
(I00
S'1 2'
p1461
(I01
I2
tp1462
(I01
I2
tp1463
tp1464
tp1465
(I00
S'1 2'
p1466
(I01
I0
tp1467
(I01
I0
tp1468
tp1469
tp1470
tp1471
tp1472
tp1473
(I00
S'0 2'
p1474
(I00
S'0 1'
p1475
(I01
I2
tp1476
(I00
S'1 1'
p1477
(I00
S'0 1'
p1478
(I00
S'1 2'
p1479
(I00
S'0 1'
p1480
(I01
I0
tp1481
(I01
I0
tp1482
tp1483
(I01
I0
tp1484
tp1485
(I00
S'1 1'
p1486
(I01
I1
tp1487
(I01
I1
tp1488
tp1489
tp1490
(I00
S'1 2'
p1491
(I00
S'1 1'
p1492
(I01
I1
tp1493
(I01
I1
tp1494
tp1495
(I00
S'0 1'
p1496
(I01
I1
tp1497
(I01
I1
tp1498
tp1499
tp1500
tp1501
tp1502
(I00
S'0 1'
p1503
(I00
S'0 2'
p1504
(I00
S'0 2'
p1505
(I00
S'1 1'
p1506
(I01
I0
tp1507
(I00
S'1 1'
p1508
(I01
I2
tp1509
(I01
I2
tp1510
tp1511
tp1512
(I00
S'1 2'
p1513
(I01
I0
tp1514
(I01
I0
tp1515
tp1516
tp1517
(I00
S'0 2'
p1518
(I01
I0
tp1519
(I00
S'1 1'
p1520
(I00
S'0 1'
p1521
(I01
I2
tp1522
(I01
I0
tp1523
tp1524
(I01
I1
tp1525
tp1526
tp1527
tp1528
(I00
S'1 1'
p1529
(I00
S'0 2'
p1530
(I01
I2
tp1531
(I01
I2
tp1532
tp1533
(I00
S'1 1'
p1534
(I00
S'1 2'
p1535
(I01
I1
tp1536
(I01
I1
tp1537
tp1538
(I00
S'0 1'
p1539
(I00
S'1 1'
p1540
(I01
I2
tp1541
(I01
I0
tp1542
tp1543
(I00
S'1 2'
p1544
(I01
I1
tp1545
(I01
I1
tp1546
tp1547
tp1548
tp1549
tp1550
tp1551
tp1552
tp1553
tp1554
tp1555
bag1
(tRp1556
(S'-12.5664 12.5664 -50 50 '
p1557
I2
F0.8500000238418579
F0.10000000149011612
F0.25
(I00
S'0 2'
p1558
(I00
S'0 1'
p1559
(I00
S'1 1'
p1560
(I00
S'1 2'
p1561
(I00
S'0 1'
p1562
(I01
I0
tp1563
(I00
S'0 2'
p1564
(I01
I0
tp1565
(I01
I1
tp1566
tp1567
tp1568
(I00
S'0 2'
p1569
(I01
I2
tp1570
(I01
I1
tp1571
tp1572
tp1573
(I00
S'0 2'
p1574
(I00
S'0 2'
p1575
(I01
I1
tp1576
(I01
I0
tp1577
tp1578
(I01
I0
tp1579
tp1580
tp1581
(I00
S'1 1'
p1582
(I01
I1
tp1583
(I00
S'0 2'
p1584
(I00
S'1 2'
p1585
(I00
S'0 1'
p1586
(I01
I0
tp1587
(I00
S'1 1'
p1588
(I01
I1
tp1589
(I00
S'0 1'
p1590
(I01
I0
tp1591
(I01
I0
tp1592
tp1593
tp1594
tp1595
(I00
S'0 1'
p1596
(I00
S'0 2'
p1597
(I01
I2
tp1598
(I01
I2
tp1599
tp1600
(I00
S'0 1'
p1601
(I01
I2
tp1602
(I01
I2
tp1603
tp1604
tp1605
tp1606
(I01
I2
tp1607
tp1608
tp1609
tp1610
(I00
S'1 1'
p1611
(I00
S'0 2'
p1612
(I00
S'0 2'
p1613
(I00
S'0 1'
p1614
(I00
S'1 1'
p1615
(I00
S'1 1'
p1616
(I01
I1
tp1617
(I01
I1
tp1618
tp1619
(I01
I0
tp1620
tp1621
(I00
S'1 1'
p1622
(I00
S'0 2'
p1623
(I01
I0
tp1624
(I01
I1
tp1625
tp1626
(I01
I0
tp1627
tp1628
tp1629
(I00
S'0 1'
p1630
(I00
S'0 1'
p1631
(I01
I0
tp1632
(I01
I1
tp1633
tp1634
(I00
S'1 1'
p1635
(I01
I2
tp1636
(I01
I1
tp1637
tp1638
tp1639
tp1640
(I00
S'0 1'
p1641
(I01
I1
tp1642
(I00
S'0 2'
p1643
(I01
I2
tp1644
(I00
S'0 2'
p1645
(I00
S'1 2'
p1646
(I01
I1
tp1647
(I00
S'1 2'
p1648
(I01
I2
tp1649
(I01
I2
tp1650
tp1651
tp1652
(I00
S'1 2'
p1653
(I01
I0
tp1654
(I01
I0
tp1655
tp1656
tp1657
tp1658
tp1659
tp1660
(I00
S'0 2'
p1661
(I00
S'0 1'
p1662
(I01
I2
tp1663
(I00
S'1 1'
p1664
(I00
S'0 1'
p1665
(I00
S'1 2'
p1666
(I01
I0
tp1667
(I01
I0
tp1668
tp1669
(I00
S'1 1'
p1670
(I01
I0
tp1671
(I01
I1
tp1672
tp1673
tp1674
(I00
S'1 2'
p1675
(I00
S'1 1'
p1676
(I01
I1
tp1677
(I01
I1
tp1678
tp1679
(I00
S'0 1'
p1680
(I01
I1
tp1681
(I01
I1
tp1682
tp1683
tp1684
tp1685
tp1686
(I00
S'0 1'
p1687
(I00
S'0 2'
p1688
(I00
S'0 2'
p1689
(I00
S'1 1'
p1690
(I01
I0
tp1691
(I00
S'1 1'
p1692
(I01
I2
tp1693
(I01
I2
tp1694
tp1695
tp1696
(I00
S'1 2'
p1697
(I01
I1
tp1698
(I01
I0
tp1699
tp1700
tp1701
(I00
S'0 2'
p1702
(I01
I0
tp1703
(I00
S'1 1'
p1704
(I00
S'0 1'
p1705
(I01
I2
tp1706
(I01
I0
tp1707
tp1708
(I01
I1
tp1709
tp1710
tp1711
tp1712
(I00
S'1 1'
p1713
(I00
S'0 2'
p1714
(I01
I2
tp1715
(I01
I2
tp1716
tp1717
(I00
S'1 1'
p1718
(I00
S'1 2'
p1719
(I01
I1
tp1720
(I01
I1
tp1721
tp1722
(I00
S'0 1'
p1723
(I00
S'1 1'
p1724
(I01
I2
tp1725
(I01
I0
tp1726
tp1727
(I00
S'1 2'
p1728
(I01
I1
tp1729
(I01
I1
tp1730
tp1731
tp1732
tp1733
tp1734
tp1735
tp1736
tp1737
tp1738
tp1739
bag1
(tRp1740
(S'-12.5664 12.5664 -50 50 '
p1741
I2
F0.8500000238418579
F0.10000000149011612
F0.25
(I00
S'0 2'
p1742
(I00
S'0 1'
p1743
(I00
S'1 1'
p1744
(I00
S'1 2'
p1745
(I00
S'0 1'
p1746
(I01
I0
tp1747
(I00
S'0 2'
p1748
(I01
I0
tp1749
(I01
I1
tp1750
tp1751
tp1752
(I00
S'0 2'
p1753
(I01
I2
tp1754
(I01
I1
tp1755
tp1756
tp1757
(I00
S'0 2'
p1758
(I00
S'0 2'
p1759
(I01
I1
tp1760
(I01
I0
tp1761
tp1762
(I01
I0
tp1763
tp1764
tp1765
(I00
S'1 1'
p1766
(I01
I1
tp1767
(I00
S'0 2'
p1768
(I00
S'1 2'
p1769
(I00
S'0 1'
p1770
(I01
I0
tp1771
(I00
S'1 1'
p1772
(I01
I1
tp1773
(I00
S'0 1'
p1774
(I01
I0
tp1775
(I01
I0
tp1776
tp1777
tp1778
tp1779
(I00
S'0 1'
p1780
(I00
S'0 2'
p1781
(I01
I2
tp1782
(I01
I2
tp1783
tp1784
(I00
S'0 1'
p1785
(I01
I2
tp1786
(I01
I2
tp1787
tp1788
tp1789
tp1790
(I01
I2
tp1791
tp1792
tp1793
tp1794
(I00
S'1 1'
p1795
(I00
S'0 2'
p1796
(I00
S'0 2'
p1797
(I00
S'0 1'
p1798
(I00
S'1 1'
p1799
(I00
S'1 1'
p1800
(I01
I1
tp1801
(I01
I1
tp1802
tp1803
(I01
I0
tp1804
tp1805
(I00
S'1 1'
p1806
(I00
S'0 2'
p1807
(I01
I0
tp1808
(I01
I2
tp1809
tp1810
(I01
I0
tp1811
tp1812
tp1813
(I00
S'0 1'
p1814
(I00
S'0 1'
p1815
(I01
I0
tp1816
(I01
I1
tp1817
tp1818
(I00
S'1 1'
p1819
(I01
I2
tp1820
(I01
I1
tp1821
tp1822
tp1823
tp1824
(I00
S'0 1'
p1825
(I01
I1
tp1826
(I00
S'0 2'
p1827
(I01
I2
tp1828
(I00
S'0 2'
p1829
(I00
S'1 2'
p1830
(I01
I1
tp1831
(I00
S'1 2'
p1832
(I01
I2
tp1833
(I01
I2
tp1834
tp1835
tp1836
(I00
S'1 2'
p1837
(I01
I0
tp1838
(I01
I0
tp1839
tp1840
tp1841
tp1842
tp1843
tp1844
(I00
S'0 2'
p1845
(I00
S'0 1'
p1846
(I01
I2
tp1847
(I00
S'1 1'
p1848
(I00
S'0 1'
p1849
(I00
S'1 2'
p1850
(I01
I0
tp1851
(I01
I0
tp1852
tp1853
(I00
S'1 1'
p1854
(I01
I1
tp1855
(I01
I1
tp1856
tp1857
tp1858
(I00
S'1 2'
p1859
(I00
S'1 1'
p1860
(I01
I1
tp1861
(I01
I1
tp1862
tp1863
(I00
S'0 1'
p1864
(I01
I1
tp1865
(I01
I1
tp1866
tp1867
tp1868
tp1869
tp1870
(I00
S'0 1'
p1871
(I00
S'0 2'
p1872
(I00
S'0 2'
p1873
(I00
S'1 1'
p1874
(I01
I0
tp1875
(I00
S'1 1'
p1876
(I01
I2
tp1877
(I01
I1
tp1878
tp1879
tp1880
(I00
S'1 2'
p1881
(I01
I0
tp1882
(I01
I0
tp1883
tp1884
tp1885
(I00
S'0 2'
p1886
(I01
I0
tp1887
(I00
S'1 1'
p1888
(I00
S'0 1'
p1889
(I01
I2
tp1890
(I01
I0
tp1891
tp1892
(I01
I1
tp1893
tp1894
tp1895
tp1896
(I00
S'1 1'
p1897
(I00
S'0 2'
p1898
(I01
I2
tp1899
(I01
I2
tp1900
tp1901
(I00
S'1 1'
p1902
(I00
S'1 2'
p1903
(I01
I1
tp1904
(I01
I1
tp1905
tp1906
(I00
S'0 1'
p1907
(I00
S'1 1'
p1908
(I01
I2
tp1909
(I01
I0
tp1910
tp1911
(I00
S'1 2'
p1912
(I01
I1
tp1913
(I01
I1
tp1914
tp1915
tp1916
tp1917
tp1918
tp1919
tp1920
tp1921
tp1922
tp1923
bag1
(tRp1924
(S'-12.5664 12.5664 -50 50 '
p1925
I2
F0.8500000238418579
F0.10000000149011612
F0.25
(I00
S'0 2'
p1926
(I00
S'0 1'
p1927
(I00
S'1 1'
p1928
(I00
S'1 2'
p1929
(I00
S'0 1'
p1930
(I01
I0
tp1931
(I00
S'0 2'
p1932
(I01
I0
tp1933
(I01
I1
tp1934
tp1935
tp1936
(I00
S'0 2'
p1937
(I01
I2
tp1938
(I01
I1
tp1939
tp1940
tp1941
(I00
S'0 2'
p1942
(I00
S'0 2'
p1943
(I01
I1
tp1944
(I01
I0
tp1945
tp1946
(I01
I0
tp1947
tp1948
tp1949
(I00
S'1 1'
p1950
(I01
I1
tp1951
(I00
S'0 2'
p1952
(I00
S'1 2'
p1953
(I00
S'0 1'
p1954
(I01
I0
tp1955
(I00
S'1 1'
p1956
(I01
I1
tp1957
(I00
S'0 1'
p1958
(I01
I0
tp1959
(I01
I0
tp1960
tp1961
tp1962
tp1963
(I00
S'0 1'
p1964
(I00
S'0 2'
p1965
(I01
I2
tp1966
(I01
I2
tp1967
tp1968
(I00
S'0 1'
p1969
(I01
I2
tp1970
(I01
I2
tp1971
tp1972
tp1973
tp1974
(I01
I2
tp1975
tp1976
tp1977
tp1978
(I00
S'1 1'
p1979
(I00
S'0 2'
p1980
(I00
S'0 2'
p1981
(I00
S'0 1'
p1982
(I00
S'1 1'
p1983
(I00
S'1 1'
p1984
(I01
I1
tp1985
(I01
I1
tp1986
tp1987
(I01
I0
tp1988
tp1989
(I00
S'1 1'
p1990
(I00
S'0 2'
p1991
(I01
I0
tp1992
(I01
I1
tp1993
tp1994
(I01
I0
tp1995
tp1996
tp1997
(I00
S'0 1'
p1998
(I00
S'0 1'
p1999
(I01
I0
tp2000
(I01
I1
tp2001
tp2002
(I00
S'1 1'
p2003
(I01
I2
tp2004
(I01
I1
tp2005
tp2006
tp2007
tp2008
(I00
S'0 1'
p2009
(I01
I1
tp2010
(I00
S'0 2'
p2011
(I01
I2
tp2012
(I00
S'0 2'
p2013
(I00
S'1 2'
p2014
(I01
I1
tp2015
(I00
S'1 2'
p2016
(I01
I2
tp2017
(I01
I2
tp2018
tp2019
tp2020
(I00
S'1 2'
p2021
(I01
I0
tp2022
(I01
I0
tp2023
tp2024
tp2025
tp2026
tp2027
tp2028
(I00
S'0 2'
p2029
(I00
S'0 1'
p2030
(I01
I2
tp2031
(I00
S'1 1'
p2032
(I00
S'0 1'
p2033
(I00
S'1 2'
p2034
(I01
I0
tp2035
(I01
I0
tp2036
tp2037
(I00
S'1 1'
p2038
(I01
I0
tp2039
(I01
I1
tp2040
tp2041
tp2042
(I00
S'1 2'
p2043
(I00
S'1 1'
p2044
(I01
I1
tp2045
(I01
I1
tp2046
tp2047
(I00
S'0 1'
p2048
(I01
I1
tp2049
(I01
I1
tp2050
tp2051
tp2052
tp2053
tp2054
(I00
S'0 1'
p2055
(I00
S'0 2'
p2056
(I00
S'0 2'
p2057
(I00
S'1 1'
p2058
(I01
I0
tp2059
(I00
S'1 1'
p2060
(I01
I2
tp2061
(I01
I2
tp2062
tp2063
tp2064
(I00
S'1 2'
p2065
(I01
I1
tp2066
(I01
I0
tp2067
tp2068
tp2069
(I00
S'0 2'
p2070
(I01
I0
tp2071
(I00
S'1 1'
p2072
(I00
S'0 1'
p2073
(I01
I2
tp2074
(I01
I0
tp2075
tp2076
(I01
I1
tp2077
tp2078
tp2079
tp2080
(I00
S'1 1'
p2081
(I00
S'0 2'
p2082
(I01
I2
tp2083
(I01
I2
tp2084
tp2085
(I00
S'1 1'
p2086
(I00
S'1 2'
p2087
(I01
I1
tp2088
(I01
I1
tp2089
tp2090
(I00
S'0 1'
p2091
(I00
S'1 1'
p2092
(I01
I2
tp2093
(I01
I0
tp2094
tp2095
(I00
S'1 2'
p2096
(I01
I1
tp2097
(I01
I1
tp2098
tp2099
tp2100
tp2101
tp2102
tp2103
tp2104
tp2105
tp2106
tp2107
bag1
(tRp2108
(S'-12.5664 12.5664 -50 50 '
p2109
I2
F0.8500000238418579
F0.10000000149011612
F0.25
(I00
S'0 2'
p2110
(I00
S'0 1'
p2111
(I00
S'1 1'
p2112
(I00
S'1 2'
p2113
(I00
S'0 1'
p2114
(I01
I0
tp2115
(I00
S'0 2'
p2116
(I01
I0
tp2117
(I01
I1
tp2118
tp2119
tp2120
(I00
S'0 2'
p2121
(I01
I2
tp2122
(I01
I1
tp2123
tp2124
tp2125
(I00
S'0 2'
p2126
(I00
S'0 2'
p2127
(I01
I1
tp2128
(I01
I0
tp2129
tp2130
(I01
I0
tp2131
tp2132
tp2133
(I00
S'1 1'
p2134
(I01
I1
tp2135
(I00
S'0 2'
p2136
(I00
S'1 2'
p2137
(I00
S'0 1'
p2138
(I01
I0
tp2139
(I00
S'1 1'
p2140
(I01
I1
tp2141
(I00
S'0 1'
p2142
(I01
I0
tp2143
(I01
I0
tp2144
tp2145
tp2146
tp2147
(I00
S'0 1'
p2148
(I00
S'0 2'
p2149
(I01
I2
tp2150
(I01
I2
tp2151
tp2152
(I00
S'0 1'
p2153
(I01
I2
tp2154
(I01
I2
tp2155
tp2156
tp2157
tp2158
(I01
I2
tp2159
tp2160
tp2161
tp2162
(I00
S'1 1'
p2163
(I00
S'0 2'
p2164
(I00
S'0 2'
p2165
(I00
S'0 1'
p2166
(I00
S'1 1'
p2167
(I00
S'1 1'
p2168
(I01
I1
tp2169
(I01
I1
tp2170
tp2171
(I01
I0
tp2172
tp2173
(I00
S'1 1'
p2174
(I00
S'0 2'
p2175
(I01
I0
tp2176
(I01
I1
tp2177
tp2178
(I01
I0
tp2179
tp2180
tp2181
(I00
S'0 1'
p2182
(I00
S'0 1'
p2183
(I01
I0
tp2184
(I01
I1
tp2185
tp2186
(I00
S'1 1'
p2187
(I01
I2
tp2188
(I01
I1
tp2189
tp2190
tp2191
tp2192
(I00
S'0 1'
p2193
(I01
I1
tp2194
(I00
S'0 2'
p2195
(I01
I2
tp2196
(I00
S'0 2'
p2197
(I00
S'1 2'
p2198
(I01
I1
tp2199
(I00
S'1 2'
p2200
(I01
I2
tp2201
(I01
I2
tp2202
tp2203
tp2204
(I00
S'1 2'
p2205
(I01
I0
tp2206
(I01
I0
tp2207
tp2208
tp2209
tp2210
tp2211
tp2212
(I00
S'0 2'
p2213
(I00
S'0 1'
p2214
(I01
I2
tp2215
(I00
S'1 1'
p2216
(I00
S'0 1'
p2217
(I00
S'1 2'
p2218
(I01
I0
tp2219
(I01
I0
tp2220
tp2221
(I00
S'1 1'
p2222
(I01
I0
tp2223
(I01
I1
tp2224
tp2225
tp2226
(I00
S'1 2'
p2227
(I00
S'1 1'
p2228
(I01
I1
tp2229
(I01
I1
tp2230
tp2231
(I00
S'0 1'
p2232
(I01
I1
tp2233
(I01
I1
tp2234
tp2235
tp2236
tp2237
tp2238
(I00
S'0 1'
p2239
(I00
S'0 2'
p2240
(I00
S'0 2'
p2241
(I00
S'1 1'
p2242
(I01
I0
tp2243
(I00
S'1 1'
p2244
(I01
I2
tp2245
(I01
I2
tp2246
tp2247
tp2248
(I00
S'1 2'
p2249
(I01
I1
tp2250
(I01
I0
tp2251
tp2252
tp2253
(I00
S'0 2'
p2254
(I01
I0
tp2255
(I00
S'1 1'
p2256
(I00
S'0 1'
p2257
(I01
I2
tp2258
(I01
I0
tp2259
tp2260
(I01
I1
tp2261
tp2262
tp2263
tp2264
(I00
S'1 1'
p2265
(I00
S'0 2'
p2266
(I01
I2
tp2267
(I01
I2
tp2268
tp2269
(I00
S'1 1'
p2270
(I00
S'1 2'
p2271
(I01
I1
tp2272
(I01
I1
tp2273
tp2274
(I00
S'0 1'
p2275
(I00
S'1 1'
p2276
(I01
I2
tp2277
(I01
I0
tp2278
tp2279
(I00
S'1 2'
p2280
(I01
I1
tp2281
(I01
I1
tp2282
tp2283
tp2284
tp2285
tp2286
tp2287
tp2288
tp2289
tp2290
tp2291
bag1
(tRp2292
(S'-12.5664 12.5664 -50 50 '
p2293
I2
F0.8500000238418579
F0.10000000149011612
F0.25
(I00
S'0 2'
p2294
(I00
S'0 1'
p2295
(I00
S'1 1'
p2296
(I00
S'1 2'
p2297
(I00
S'0 1'
p2298
(I01
I0
tp2299
(I00
S'0 2'
p2300
(I01
I0
tp2301
(I01
I1
tp2302
tp2303
tp2304
(I00
S'0 2'
p2305
(I01
I2
tp2306
(I01
I1
tp2307
tp2308
tp2309
(I00
S'0 2'
p2310
(I00
S'0 2'
p2311
(I01
I1
tp2312
(I01
I0
tp2313
tp2314
(I01
I0
tp2315
tp2316
tp2317
(I00
S'1 1'
p2318
(I01
I1
tp2319
(I00
S'0 2'
p2320
(I00
S'1 2'
p2321
(I00
S'0 1'
p2322
(I01
I0
tp2323
(I00
S'1 1'
p2324
(I01
I1
tp2325
(I00
S'0 1'
p2326
(I00
S'0 1'
p2327
(I01
I0
tp2328
(I01
I0
tp2329
tp2330
(I01
I0
tp2331
tp2332
tp2333
tp2334
(I00
S'0 1'
p2335
(I00
S'0 2'
p2336
(I01
I2
tp2337
(I01
I2
tp2338
tp2339
(I00
S'0 1'
p2340
(I01
I2
tp2341
(I01
I2
tp2342
tp2343
tp2344
tp2345
(I01
I2
tp2346
tp2347
tp2348
tp2349
(I00
S'1 1'
p2350
(I00
S'0 2'
p2351
(I00
S'0 2'
p2352
(I00
S'0 1'
p2353
(I00
S'1 1'
p2354
(I00
S'1 1'
p2355
(I01
I1
tp2356
(I01
I1
tp2357
tp2358
(I01
I0
tp2359
tp2360
(I00
S'1 1'
p2361
(I00
S'0 2'
p2362
(I01
I0
tp2363
(I01
I1
tp2364
tp2365
(I01
I0
tp2366
tp2367
tp2368
(I00
S'0 1'
p2369
(I00
S'0 1'
p2370
(I01
I0
tp2371
(I01
I1
tp2372
tp2373
(I00
S'1 1'
p2374
(I01
I2
tp2375
(I01
I1
tp2376
tp2377
tp2378
tp2379
(I00
S'0 1'
p2380
(I01
I1
tp2381
(I00
S'0 2'
p2382
(I01
I2
tp2383
(I00
S'0 2'
p2384
(I00
S'1 2'
p2385
(I01
I1
tp2386
(I00
S'1 2'
p2387
(I01
I2
tp2388
(I01
I2
tp2389
tp2390
tp2391
(I00
S'1 2'
p2392
(I01
I0
tp2393
(I01
I0
tp2394
tp2395
tp2396
tp2397
tp2398
tp2399
(I00
S'0 2'
p2400
(I00
S'0 1'
p2401
(I01
I2
tp2402
(I00
S'1 1'
p2403
(I00
S'0 1'
p2404
(I00
S'1 2'
p2405
(I01
I0
tp2406
(I01
I0
tp2407
tp2408
(I00
S'1 1'
p2409
(I01
I1
tp2410
(I01
I1
tp2411
tp2412
tp2413
(I00
S'1 2'
p2414
(I00
S'1 1'
p2415
(I01
I1
tp2416
(I01
I1
tp2417
tp2418
(I00
S'0 1'
p2419
(I01
I1
tp2420
(I01
I1
tp2421
tp2422
tp2423
tp2424
tp2425
(I00
S'0 1'
p2426
(I00
S'0 2'
p2427
(I00
S'0 2'
p2428
(I00
S'1 1'
p2429
(I01
I0
tp2430
(I00
S'1 1'
p2431
(I01
I2
tp2432
(I01
I2
tp2433
tp2434
tp2435
(I00
S'1 2'
p2436
(I01
I0
tp2437
(I01
I0
tp2438
tp2439
tp2440
(I00
S'0 2'
p2441
(I01
I0
tp2442
(I00
S'1 1'
p2443
(I00
S'0 1'
p2444
(I01
I2
tp2445
(I01
I0
tp2446
tp2447
(I01
I1
tp2448
tp2449
tp2450
tp2451
(I00
S'1 1'
p2452
(I00
S'0 2'
p2453
(I01
I2
tp2454
(I01
I2
tp2455
tp2456
(I00
S'1 1'
p2457
(I00
S'1 2'
p2458
(I01
I1
tp2459
(I01
I1
tp2460
tp2461
(I00
S'0 1'
p2462
(I00
S'1 1'
p2463
(I01
I2
tp2464
(I01
I0
tp2465
tp2466
(I00
S'1 2'
p2467
(I01
I1
tp2468
(I01
I1
tp2469
tp2470
tp2471
tp2472
tp2473
tp2474
tp2475
tp2476
tp2477
tp2478
bag1
(tRp2479
(S'-12.5664 12.5664 -50 50 '
p2480
I2
F0.8500000238418579
F0.10000000149011612
F0.25
(I00
S'0 2'
p2481
(I00
S'0 1'
p2482
(I00
S'1 1'
p2483
(I00
S'1 2'
p2484
(I00
S'0 1'
p2485
(I01
I0
tp2486
(I00
S'0 2'
p2487
(I00
S'1 2'
p2488
(I01
I0
tp2489
(I01
I0
tp2490
tp2491
(I01
I1
tp2492
tp2493
tp2494
(I00
S'0 2'
p2495
(I01
I2
tp2496
(I01
I1
tp2497
tp2498
tp2499
(I00
S'0 2'
p2500
(I00
S'0 2'
p2501
(I01
I0
tp2502
(I01
I0
tp2503
tp2504
(I01
I0
tp2505
tp2506
tp2507
(I00
S'1 1'
p2508
(I01
I1
tp2509
(I00
S'0 2'
p2510
(I00
S'1 2'
p2511
(I00
S'0 1'
p2512
(I01
I0
tp2513
(I00
S'1 1'
p2514
(I01
I1
tp2515
(I00
S'0 1'
p2516
(I01
I0
tp2517
(I01
I0
tp2518
tp2519
tp2520
tp2521
(I00
S'0 1'
p2522
(I00
S'0 2'
p2523
(I01
I2
tp2524
(I01
I2
tp2525
tp2526
(I00
S'0 1'
p2527
(I01
I2
tp2528
(I01
I2
tp2529
tp2530
tp2531
tp2532
(I01
I2
tp2533
tp2534
tp2535
tp2536
(I00
S'1 1'
p2537
(I00
S'0 2'
p2538
(I00
S'0 2'
p2539
(I00
S'0 1'
p2540
(I00
S'1 1'
p2541
(I00
S'1 1'
p2542
(I01
I1
tp2543
(I01
I1
tp2544
tp2545
(I01
I0
tp2546
tp2547
(I00
S'1 1'
p2548
(I00
S'0 2'
p2549
(I01
I0
tp2550
(I01
I1
tp2551
tp2552
(I01
I0
tp2553
tp2554
tp2555
(I00
S'0 1'
p2556
(I00
S'0 1'
p2557
(I01
I0
tp2558
(I01
I1
tp2559
tp2560
(I00
S'1 1'
p2561
(I01
I2
tp2562
(I01
I1
tp2563
tp2564
tp2565
tp2566
(I00
S'0 1'
p2567
(I01
I1
tp2568
(I00
S'0 2'
p2569
(I01
I2
tp2570
(I00
S'0 2'
p2571
(I00
S'1 2'
p2572
(I01
I1
tp2573
(I00
S'1 2'
p2574
(I01
I2
tp2575
(I01
I2
tp2576
tp2577
tp2578
(I00
S'1 2'
p2579
(I01
I0
tp2580
(I01
I0
tp2581
tp2582
tp2583
tp2584
tp2585
tp2586
(I00
S'0 2'
p2587
(I00
S'0 1'
p2588
(I01
I2
tp2589
(I00
S'1 1'
p2590
(I00
S'0 1'
p2591
(I00
S'1 2'
p2592
(I01
I0
tp2593
(I01
I0
tp2594
tp2595
(I00
S'1 1'
p2596
(I01
I1
tp2597
(I01
I1
tp2598
tp2599
tp2600
(I00
S'1 2'
p2601
(I00
S'1 1'
p2602
(I01
I1
tp2603
(I01
I1
tp2604
tp2605
(I00
S'0 1'
p2606
(I01
I1
tp2607
(I01
I1
tp2608
tp2609
tp2610
tp2611
tp2612
(I00
S'0 1'
p2613
(I00
S'0 2'
p2614
(I00
S'0 2'
p2615
(I00
S'1 1'
p2616
(I01
I0
tp2617
(I00
S'1 1'
p2618
(I01
I2
tp2619
(I01
I2
tp2620
tp2621
tp2622
(I00
S'1 2'
p2623
(I01
I0
tp2624
(I01
I0
tp2625
tp2626
tp2627
(I00
S'0 2'
p2628
(I01
I0
tp2629
(I00
S'1 1'
p2630
(I00
S'0 1'
p2631
(I01
I2
tp2632
(I01
I0
tp2633
tp2634
(I01
I1
tp2635
tp2636
tp2637
tp2638
(I00
S'1 1'
p2639
(I00
S'0 2'
p2640
(I01
I2
tp2641
(I01
I2
tp2642
tp2643
(I00
S'1 1'
p2644
(I00
S'1 2'
p2645
(I01
I1
tp2646
(I01
I1
tp2647
tp2648
(I00
S'0 1'
p2649
(I00
S'1 1'
p2650
(I01
I2
tp2651
(I01
I0
tp2652
tp2653
(I00
S'1 2'
p2654
(I01
I1
tp2655
(I01
I1
tp2656
tp2657
tp2658
tp2659
tp2660
tp2661
tp2662
tp2663
tp2664
tp2665
bag1
(tRp2666
(S'-12.5664 12.5664 -50 50 '
p2667
I2
F0.8500000238418579
F0.10000000149011612
F0.25
(I00
S'0 2'
p2668
(I00
S'0 1'
p2669
(I00
S'1 1'
p2670
(I00
S'1 2'
p2671
(I00
S'0 1'
p2672
(I01
I0
tp2673
(I00
S'0 2'
p2674
(I01
I0
tp2675
(I01
I1
tp2676
tp2677
tp2678
(I00
S'0 2'
p2679
(I01
I2
tp2680
(I01
I1
tp2681
tp2682
tp2683
(I00
S'0 2'
p2684
(I00
S'0 2'
p2685
(I01
I1
tp2686
(I01
I0
tp2687
tp2688
(I01
I0
tp2689
tp2690
tp2691
(I00
S'1 1'
p2692
(I01
I1
tp2693
(I00
S'0 2'
p2694
(I00
S'1 2'
p2695
(I00
S'0 1'
p2696
(I01
I0
tp2697
(I00
S'1 1'
p2698
(I01
I1
tp2699
(I00
S'0 1'
p2700
(I01
I0
tp2701
(I01
I0
tp2702
tp2703
tp2704
tp2705
(I00
S'0 1'
p2706
(I00
S'0 2'
p2707
(I01
I2
tp2708
(I01
I2
tp2709
tp2710
(I00
S'0 1'
p2711
(I01
I2
tp2712
(I01
I2
tp2713
tp2714
tp2715
tp2716
(I01
I2
tp2717
tp2718
tp2719
tp2720
(I00
S'1 1'
p2721
(I00
S'0 2'
p2722
(I00
S'0 2'
p2723
(I00
S'0 1'
p2724
(I00
S'1 1'
p2725
(I00
S'1 1'
p2726
(I01
I1
tp2727
(I01
I1
tp2728
tp2729
(I01
I0
tp2730
tp2731
(I00
S'1 1'
p2732
(I00
S'0 2'
p2733
(I01
I0
tp2734
(I01
I1
tp2735
tp2736
(I01
I0
tp2737
tp2738
tp2739
(I00
S'0 1'
p2740
(I00
S'0 1'
p2741
(I01
I0
tp2742
(I01
I1
tp2743
tp2744
(I00
S'1 1'
p2745
(I01
I2
tp2746
(I01
I1
tp2747
tp2748
tp2749
tp2750
(I00
S'0 1'
p2751
(I01
I1
tp2752
(I00
S'0 2'
p2753
(I01
I2
tp2754
(I00
S'0 2'
p2755
(I00
S'1 2'
p2756
(I01
I1
tp2757
(I00
S'1 2'
p2758
(I01
I2
tp2759
(I01
I2
tp2760
tp2761
tp2762
(I00
S'1 2'
p2763
(I01
I0
tp2764
(I01
I0
tp2765
tp2766
tp2767
tp2768
tp2769
tp2770
(I00
S'0 2'
p2771
(I00
S'0 1'
p2772
(I01
I2
tp2773
(I00
S'1 1'
p2774
(I00
S'0 1'
p2775
(I00
S'1 2'
p2776
(I01
I0
tp2777
(I01
I0
tp2778
tp2779
(I00
S'1 1'
p2780
(I01
I0
tp2781
(I01
I1
tp2782
tp2783
tp2784
(I00
S'1 2'
p2785
(I00
S'1 1'
p2786
(I01
I1
tp2787
(I01
I1
tp2788
tp2789
(I00
S'0 1'
p2790
(I01
I1
tp2791
(I01
I1
tp2792
tp2793
tp2794
tp2795
tp2796
(I00
S'0 1'
p2797
(I00
S'0 2'
p2798
(I00
S'0 2'
p2799
(I00
S'1 1'
p2800
(I01
I0
tp2801
(I00
S'1 1'
p2802
(I01
I2
tp2803
(I01
I2
tp2804
tp2805
tp2806
(I00
S'1 2'
p2807
(I01
I1
tp2808
(I01
I0
tp2809
tp2810
tp2811
(I00
S'0 2'
p2812
(I01
I0
tp2813
(I00
S'1 1'
p2814
(I00
S'1 1'
p2815
(I01
I2
tp2816
(I01
I0
tp2817
tp2818
(I01
I1
tp2819
tp2820
tp2821
tp2822
(I00
S'1 1'
p2823
(I00
S'0 2'
p2824
(I01
I2
tp2825
(I01
I2
tp2826
tp2827
(I00
S'1 1'
p2828
(I00
S'1 2'
p2829
(I01
I1
tp2830
(I01
I1
tp2831
tp2832
(I00
S'0 1'
p2833
(I00
S'1 1'
p2834
(I01
I2
tp2835
(I01
I0
tp2836
tp2837
(I00
S'1 2'
p2838
(I01
I1
tp2839
(I01
I1
tp2840
tp2841
tp2842
tp2843
tp2844
tp2845
tp2846
tp2847
tp2848
tp2849
bag1
(tRp2850
(S'-12.5664 12.5664 -50 50 '
p2851
I2
F0.8500000238418579
F0.10000000149011612
F0.25
(I00
S'0 2'
p2852
(I00
S'0 1'
p2853
(I00
S'1 1'
p2854
(I00
S'1 2'
p2855
(I00
S'0 1'
p2856
(I01
I0
tp2857
(I00
S'0 2'
p2858
(I01
I0
tp2859
(I01
I1
tp2860
tp2861
tp2862
(I00
S'0 2'
p2863
(I01
I2
tp2864
(I01
I1
tp2865
tp2866
tp2867
(I00
S'0 2'
p2868
(I00
S'0 2'
p2869
(I01
I1
tp2870
(I01
I0
tp2871
tp2872
(I01
I0
tp2873
tp2874
tp2875
(I00
S'1 1'
p2876
(I01
I1
tp2877
(I00
S'0 2'
p2878
(I00
S'1 2'
p2879
(I00
S'0 1'
p2880
(I01
I0
tp2881
(I00
S'1 1'
p2882
(I01
I1
tp2883
(I00
S'0 1'
p2884
(I01
I0
tp2885
(I01
I0
tp2886
tp2887
tp2888
tp2889
(I00
S'0 1'
p2890
(I00
S'0 2'
p2891
(I01
I2
tp2892
(I01
I2
tp2893
tp2894
(I00
S'0 1'
p2895
(I01
I2
tp2896
(I01
I2
tp2897
tp2898
tp2899
tp2900
(I01
I2
tp2901
tp2902
tp2903
tp2904
(I00
S'1 1'
p2905
(I00
S'0 2'
p2906
(I00
S'0 2'
p2907
(I00
S'0 1'
p2908
(I00
S'1 1'
p2909
(I00
S'1 1'
p2910
(I01
I1
tp2911
(I01
I1
tp2912
tp2913
(I01
I0
tp2914
tp2915
(I00
S'1 1'
p2916
(I00
S'0 2'
p2917
(I01
I0
tp2918
(I01
I1
tp2919
tp2920
(I01
I0
tp2921
tp2922
tp2923
(I00
S'0 1'
p2924
(I00
S'0 1'
p2925
(I01
I0
tp2926
(I01
I1
tp2927
tp2928
(I00
S'1 1'
p2929
(I01
I2
tp2930
(I01
I1
tp2931
tp2932
tp2933
tp2934
(I00
S'0 1'
p2935
(I01
I1
tp2936
(I00
S'0 2'
p2937
(I01
I2
tp2938
(I00
S'0 2'
p2939
(I00
S'1 2'
p2940
(I01
I1
tp2941
(I00
S'1 2'
p2942
(I01
I2
tp2943
(I01
I2
tp2944
tp2945
tp2946
(I00
S'1 2'
p2947
(I01
I0
tp2948
(I01
I0
tp2949
tp2950
tp2951
tp2952
tp2953
tp2954
(I00
S'0 2'
p2955
(I00
S'0 1'
p2956
(I01
I2
tp2957
(I00
S'1 1'
p2958
(I00
S'0 1'
p2959
(I00
S'1 2'
p2960
(I00
S'1 2'
p2961
(I01
I0
tp2962
(I01
I0
tp2963
tp2964
(I01
I0
tp2965
tp2966
(I00
S'1 1'
p2967
(I01
I0
tp2968
(I01
I1
tp2969
tp2970
tp2971
(I00
S'1 2'
p2972
(I00
S'1 1'
p2973
(I01
I1
tp2974
(I01
I1
tp2975
tp2976
(I00
S'0 1'
p2977
(I01
I1
tp2978
(I01
I1
tp2979
tp2980
tp2981
tp2982
tp2983
(I00
S'0 1'
p2984
(I00
S'0 2'
p2985
(I00
S'0 2'
p2986
(I00
S'1 1'
p2987
(I01
I0
tp2988
(I00
S'1 1'
p2989
(I01
I2
tp2990
(I01
I2
tp2991
tp2992
tp2993
(I00
S'1 2'
p2994
(I01
I1
tp2995
(I01
I0
tp2996
tp2997
tp2998
(I00
S'0 2'
p2999
(I01
I0
tp3000
(I00
S'1 1'
p3001
(I00
S'0 1'
p3002
(I01
I2
tp3003
(I01
I0
tp3004
tp3005
(I01
I1
tp3006
tp3007
tp3008
tp3009
(I00
S'1 1'
p3010
(I00
S'0 2'
p3011
(I01
I2
tp3012
(I01
I2
tp3013
tp3014
(I00
S'1 1'
p3015
(I00
S'1 2'
p3016
(I01
I1
tp3017
(I01
I1
tp3018
tp3019
(I00
S'0 1'
p3020
(I00
S'1 1'
p3021
(I01
I2
tp3022
(I01
I0
tp3023
tp3024
(I00
S'1 2'
p3025
(I01
I1
tp3026
(I01
I1
tp3027
tp3028
tp3029
tp3030
tp3031
tp3032
tp3033
tp3034
tp3035
tp3036
bag1
(tRp3037
(S'-12.5664 12.5664 -50 50 '
p3038
I2
F0.8500000238418579
F0.10000000149011612
F0.25
(I00
S'0 2'
p3039
(I00
S'0 1'
p3040
(I00
S'1 1'
p3041
(I00
S'1 2'
p3042
(I00
S'0 1'
p3043
(I01
I0
tp3044
(I00
S'0 2'
p3045
(I01
I0
tp3046
(I01
I1
tp3047
tp3048
tp3049
(I00
S'0 2'
p3050
(I01
I2
tp3051
(I01
I1
tp3052
tp3053
tp3054
(I00
S'0 2'
p3055
(I00
S'0 2'
p3056
(I01
I1
tp3057
(I01
I0
tp3058
tp3059
(I01
I0
tp3060
tp3061
tp3062
(I00
S'1 1'
p3063
(I01
I1
tp3064
(I00
S'0 2'
p3065
(I00
S'1 2'
p3066
(I00
S'0 1'
p3067
(I01
I0
tp3068
(I00
S'1 1'
p3069
(I01
I1
tp3070
(I00
S'0 1'
p3071
(I01
I0
tp3072
(I01
I0
tp3073
tp3074
tp3075
tp3076
(I00
S'0 1'
p3077
(I00
S'0 2'
p3078
(I01
I2
tp3079
(I01
I2
tp3080
tp3081
(I00
S'0 1'
p3082
(I01
I2
tp3083
(I01
I2
tp3084
tp3085
tp3086
tp3087
(I01
I2
tp3088
tp3089
tp3090
tp3091
(I00
S'1 1'
p3092
(I00
S'0 2'
p3093
(I00
S'0 2'
p3094
(I00
S'0 1'
p3095
(I00
S'1 1'
p3096
(I00
S'1 1'
p3097
(I01
I1
tp3098
(I01
I1
tp3099
tp3100
(I01
I0
tp3101
tp3102
(I00
S'1 1'
p3103
(I00
S'0 2'
p3104
(I01
I0
tp3105
(I01
I1
tp3106
tp3107
(I01
I0
tp3108
tp3109
tp3110
(I00
S'0 1'
p3111
(I00
S'0 1'
p3112
(I01
I0
tp3113
(I01
I1
tp3114
tp3115
(I00
S'1 1'
p3116
(I01
I2
tp3117
(I01
I1
tp3118
tp3119
tp3120
tp3121
(I00
S'0 1'
p3122
(I01
I1
tp3123
(I00
S'0 2'
p3124
(I01
I2
tp3125
(I00
S'0 2'
p3126
(I00
S'1 2'
p3127
(I01
I1
tp3128
(I00
S'1 2'
p3129
(I01
I1
tp3130
(I01
I2
tp3131
tp3132
tp3133
(I00
S'1 2'
p3134
(I01
I0
tp3135
(I01
I0
tp3136
tp3137
tp3138
tp3139
tp3140
tp3141
(I00
S'0 2'
p3142
(I00
S'0 1'
p3143
(I01
I2
tp3144
(I00
S'1 1'
p3145
(I00
S'0 1'
p3146
(I00
S'1 2'
p3147
(I01
I0
tp3148
(I01
I0
tp3149
tp3150
(I00
S'1 1'
p3151
(I01
I0
tp3152
(I01
I1
tp3153
tp3154
tp3155
(I00
S'1 2'
p3156
(I00
S'1 1'
p3157
(I01
I1
tp3158
(I01
I1
tp3159
tp3160
(I00
S'0 1'
p3161
(I01
I1
tp3162
(I01
I1
tp3163
tp3164
tp3165
tp3166
tp3167
(I00
S'0 1'
p3168
(I00
S'0 2'
p3169
(I00
S'0 2'
p3170
(I00
S'1 1'
p3171
(I01
I0
tp3172
(I00
S'1 1'
p3173
(I01
I2
tp3174
(I01
I2
tp3175
tp3176
tp3177
(I00
S'1 2'
p3178
(I01
I1
tp3179
(I01
I0
tp3180
tp3181
tp3182
(I00
S'0 2'
p3183
(I01
I0
tp3184
(I00
S'1 1'
p3185
(I00
S'0 1'
p3186
(I01
I2
tp3187
(I01
I0
tp3188
tp3189
(I01
I1
tp3190
tp3191
tp3192
tp3193
(I00
S'1 1'
p3194
(I00
S'0 2'
p3195
(I01
I2
tp3196
(I01
I2
tp3197
tp3198
(I00
S'1 1'
p3199
(I00
S'1 2'
p3200
(I01
I1
tp3201
(I01
I1
tp3202
tp3203
(I00
S'0 1'
p3204
(I00
S'1 1'
p3205
(I01
I2
tp3206
(I01
I0
tp3207
tp3208
(I00
S'1 2'
p3209
(I01
I1
tp3210
(I01
I1
tp3211
tp3212
tp3213
tp3214
tp3215
tp3216
tp3217
tp3218
tp3219
tp3220
bag1
(tRp3221
(S'-12.5664 12.5664 -50 50 '
p3222
I2
F0.8500000238418579
F0.10000000149011612
F0.25
(I00
S'0 2'
p3223
(I00
S'0 1'
p3224
(I00
S'1 1'
p3225
(I00
S'1 2'
p3226
(I00
S'0 1'
p3227
(I01
I0
tp3228
(I00
S'0 2'
p3229
(I01
I0
tp3230
(I01
I1
tp3231
tp3232
tp3233
(I00
S'0 2'
p3234
(I01
I2
tp3235
(I01
I1
tp3236
tp3237
tp3238
(I00
S'0 2'
p3239
(I00
S'0 2'
p3240
(I01
I1
tp3241
(I01
I0
tp3242
tp3243
(I01
I0
tp3244
tp3245
tp3246
(I00
S'1 1'
p3247
(I01
I1
tp3248
(I00
S'0 2'
p3249
(I00
S'1 2'
p3250
(I00
S'0 1'
p3251
(I01
I0
tp3252
(I00
S'1 1'
p3253
(I01
I1
tp3254
(I00
S'0 1'
p3255
(I01
I0
tp3256
(I00
S'0 2'
p3257
(I01
I0
tp3258
(I01
I0
tp3259
tp3260
tp3261
tp3262
tp3263
(I00
S'0 1'
p3264
(I00
S'0 2'
p3265
(I01
I2
tp3266
(I01
I2
tp3267
tp3268
(I00
S'0 1'
p3269
(I01
I2
tp3270
(I01
I2
tp3271
tp3272
tp3273
tp3274
(I01
I2
tp3275
tp3276
tp3277
tp3278
(I00
S'1 1'
p3279
(I00
S'0 2'
p3280
(I00
S'0 2'
p3281
(I00
S'0 1'
p3282
(I00
S'1 1'
p3283
(I00
S'1 1'
p3284
(I01
I1
tp3285
(I01
I1
tp3286
tp3287
(I01
I0
tp3288
tp3289
(I00
S'1 1'
p3290
(I00
S'0 2'
p3291
(I01
I0
tp3292
(I01
I1
tp3293
tp3294
(I01
I0
tp3295
tp3296
tp3297
(I00
S'0 1'
p3298
(I00
S'0 1'
p3299
(I01
I0
tp3300
(I01
I1
tp3301
tp3302
(I00
S'1 1'
p3303
(I01
I2
tp3304
(I01
I1
tp3305
tp3306
tp3307
tp3308
(I00
S'0 1'
p3309
(I01
I1
tp3310
(I00
S'0 2'
p3311
(I01
I2
tp3312
(I00
S'0 2'
p3313
(I00
S'1 2'
p3314
(I01
I1
tp3315
(I00
S'1 2'
p3316
(I01
I2
tp3317
(I01
I2
tp3318
tp3319
tp3320
(I00
S'1 2'
p3321
(I01
I0
tp3322
(I01
I0
tp3323
tp3324
tp3325
tp3326
tp3327
tp3328
(I00
S'0 2'
p3329
(I00
S'0 1'
p3330
(I01
I2
tp3331
(I00
S'1 1'
p3332
(I00
S'0 1'
p3333
(I00
S'1 2'
p3334
(I01
I0
tp3335
(I01
I0
tp3336
tp3337
(I00
S'1 1'
p3338
(I01
I1
tp3339
(I01
I1
tp3340
tp3341
tp3342
(I00
S'1 2'
p3343
(I00
S'1 1'
p3344
(I01
I1
tp3345
(I01
I1
tp3346
tp3347
(I00
S'0 1'
p3348
(I01
I1
tp3349
(I01
I1
tp3350
tp3351
tp3352
tp3353
tp3354
(I00
S'0 1'
p3355
(I00
S'0 2'
p3356
(I00
S'0 2'
p3357
(I00
S'1 1'
p3358
(I01
I0
tp3359
(I00
S'1 1'
p3360
(I01
I2
tp3361
(I01
I2
tp3362
tp3363
tp3364
(I00
S'1 2'
p3365
(I01
I0
tp3366
(I01
I0
tp3367
tp3368
tp3369
(I00
S'0 2'
p3370
(I01
I0
tp3371
(I00
S'1 1'
p3372
(I00
S'0 1'
p3373
(I01
I2
tp3374
(I01
I0
tp3375
tp3376
(I01
I1
tp3377
tp3378
tp3379
tp3380
(I00
S'1 1'
p3381
(I00
S'0 2'
p3382
(I01
I2
tp3383
(I01
I2
tp3384
tp3385
(I00
S'1 1'
p3386
(I00
S'1 2'
p3387
(I01
I1
tp3388
(I01
I1
tp3389
tp3390
(I00
S'0 1'
p3391
(I00
S'1 1'
p3392
(I01
I2
tp3393
(I01
I0
tp3394
tp3395
(I00
S'1 2'
p3396
(I01
I1
tp3397
(I01
I1
tp3398
tp3399
tp3400
tp3401
tp3402
tp3403
tp3404
tp3405
tp3406
tp3407
bag1
(tRp3408
(S'-12.5664 12.5664 -50 50 '
p3409
I2
F0.8500000238418579
F0.10000000149011612
F0.25
(I00
S'0 2'
p3410
(I00
S'0 1'
p3411
(I00
S'1 1'
p3412
(I00
S'1 2'
p3413
(I00
S'0 1'
p3414
(I01
I0
tp3415
(I00
S'0 2'
p3416
(I01
I0
tp3417
(I01
I1
tp3418
tp3419
tp3420
(I00
S'0 2'
p3421
(I01
I2
tp3422
(I01
I1
tp3423
tp3424
tp3425
(I00
S'0 2'
p3426
(I00
S'0 2'
p3427
(I01
I2
tp3428
(I01
I0
tp3429
tp3430
(I01
I0
tp3431
tp3432
tp3433
(I00
S'1 1'
p3434
(I01
I1
tp3435
(I00
S'0 2'
p3436
(I00
S'1 2'
p3437
(I00
S'0 1'
p3438
(I01
I0
tp3439
(I00
S'1 1'
p3440
(I01
I1
tp3441
(I00
S'0 1'
p3442
(I01
I0
tp3443
(I01
I0
tp3444
tp3445
tp3446
tp3447
(I00
S'0 1'
p3448
(I00
S'0 2'
p3449
(I01
I2
tp3450
(I01
I2
tp3451
tp3452
(I00
S'0 1'
p3453
(I01
I2
tp3454
(I01
I2
tp3455
tp3456
tp3457
tp3458
(I01
I2
tp3459
tp3460
tp3461
tp3462
(I00
S'1 1'
p3463
(I00
S'0 2'
p3464
(I00
S'0 2'
p3465
(I00
S'0 1'
p3466
(I00
S'1 1'
p3467
(I00
S'1 1'
p3468
(I01
I1
tp3469
(I01
I1
tp3470
tp3471
(I01
I0
tp3472
tp3473
(I00
S'1 1'
p3474
(I00
S'0 2'
p3475
(I01
I0
tp3476
(I01
I1
tp3477
tp3478
(I01
I0
tp3479
tp3480
tp3481
(I00
S'0 1'
p3482
(I00
S'0 1'
p3483
(I01
I0
tp3484
(I01
I1
tp3485
tp3486
(I00
S'1 1'
p3487
(I01
I2
tp3488
(I01
I1
tp3489
tp3490
tp3491
tp3492
(I00
S'0 1'
p3493
(I01
I1
tp3494
(I00
S'0 2'
p3495
(I01
I2
tp3496
(I00
S'0 2'
p3497
(I00
S'1 2'
p3498
(I01
I1
tp3499
(I00
S'1 2'
p3500
(I01
I2
tp3501
(I01
I2
tp3502
tp3503
tp3504
(I00
S'1 2'
p3505
(I01
I0
tp3506
(I01
I0
tp3507
tp3508
tp3509
tp3510
tp3511
tp3512
(I00
S'0 2'
p3513
(I00
S'0 1'
p3514
(I01
I2
tp3515
(I00
S'1 1'
p3516
(I00
S'0 1'
p3517
(I00
S'1 2'
p3518
(I01
I0
tp3519
(I01
I0
tp3520
tp3521
(I00
S'1 1'
p3522
(I01
I0
tp3523
(I01
I1
tp3524
tp3525
tp3526
(I00
S'1 2'
p3527
(I00
S'1 1'
p3528
(I01
I1
tp3529
(I01
I1
tp3530
tp3531
(I00
S'0 1'
p3532
(I01
I1
tp3533
(I01
I1
tp3534
tp3535
tp3536
tp3537
tp3538
(I00
S'0 1'
p3539
(I00
S'0 2'
p3540
(I00
S'0 2'
p3541
(I00
S'1 1'
p3542
(I01
I0
tp3543
(I00
S'1 1'
p3544
(I01
I2
tp3545
(I01
I2
tp3546
tp3547
tp3548
(I00
S'1 2'
p3549
(I01
I1
tp3550
(I01
I0
tp3551
tp3552
tp3553
(I00
S'0 2'
p3554
(I01
I0
tp3555
(I00
S'1 1'
p3556
(I00
S'0 1'
p3557
(I01
I2
tp3558
(I01
I0
tp3559
tp3560
(I01
I1
tp3561
tp3562
tp3563
tp3564
(I00
S'1 1'
p3565
(I00
S'0 2'
p3566
(I01
I2
tp3567
(I01
I2
tp3568
tp3569
(I00
S'1 1'
p3570
(I00
S'1 2'
p3571
(I01
I1
tp3572
(I01
I1
tp3573
tp3574
(I00
S'0 1'
p3575
(I00
S'1 1'
p3576
(I01
I2
tp3577
(I01
I0
tp3578
tp3579
(I00
S'1 2'
p3580
(I01
I1
tp3581
(I01
I1
tp3582
tp3583
tp3584
tp3585
tp3586
tp3587
tp3588
tp3589
tp3590
tp3591
bag1
(tRp3592
(S'-12.5664 12.5664 -50 50 '
p3593
I2
F0.8500000238418579
F0.10000000149011612
F0.25
(I00
S'0 2'
p3594
(I00
S'0 1'
p3595
(I00
S'1 1'
p3596
(I00
S'1 2'
p3597
(I00
S'0 1'
p3598
(I01
I0
tp3599
(I00
S'0 2'
p3600
(I01
I0
tp3601
(I01
I1
tp3602
tp3603
tp3604
(I00
S'0 2'
p3605
(I01
I2
tp3606
(I01
I1
tp3607
tp3608
tp3609
(I00
S'0 2'
p3610
(I00
S'0 2'
p3611
(I01
I1
tp3612
(I01
I0
tp3613
tp3614
(I01
I0
tp3615
tp3616
tp3617
(I00
S'1 1'
p3618
(I01
I1
tp3619
(I00
S'0 2'
p3620
(I00
S'1 2'
p3621
(I00
S'0 1'
p3622
(I01
I0
tp3623
(I00
S'1 1'
p3624
(I01
I1
tp3625
(I00
S'0 1'
p3626
(I01
I0
tp3627
(I01
I0
tp3628
tp3629
tp3630
tp3631
(I00
S'0 1'
p3632
(I00
S'0 2'
p3633
(I01
I2
tp3634
(I01
I2
tp3635
tp3636
(I00
S'0 1'
p3637
(I01
I2
tp3638
(I01
I2
tp3639
tp3640
tp3641
tp3642
(I01
I2
tp3643
tp3644
tp3645
tp3646
(I00
S'1 1'
p3647
(I00
S'0 2'
p3648
(I00
S'0 2'
p3649
(I00
S'0 1'
p3650
(I00
S'1 1'
p3651
(I00
S'1 1'
p3652
(I01
I1
tp3653
(I01
I1
tp3654
tp3655
(I01
I0
tp3656
tp3657
(I00
S'1 1'
p3658
(I00
S'0 2'
p3659
(I01
I0
tp3660
(I01
I1
tp3661
tp3662
(I01
I0
tp3663
tp3664
tp3665
(I00
S'0 1'
p3666
(I00
S'0 1'
p3667
(I01
I0
tp3668
(I01
I1
tp3669
tp3670
(I00
S'1 1'
p3671
(I01
I2
tp3672
(I01
I1
tp3673
tp3674
tp3675
tp3676
(I00
S'0 1'
p3677
(I01
I1
tp3678
(I00
S'0 2'
p3679
(I01
I2
tp3680
(I00
S'0 2'
p3681
(I00
S'1 2'
p3682
(I01
I1
tp3683
(I00
S'1 2'
p3684
(I01
I2
tp3685
(I01
I2
tp3686
tp3687
tp3688
(I00
S'1 2'
p3689
(I01
I0
tp3690
(I01
I0
tp3691
tp3692
tp3693
tp3694
tp3695
tp3696
(I00
S'0 2'
p3697
(I00
S'0 1'
p3698
(I01
I2
tp3699
(I00
S'1 1'
p3700
(I00
S'0 1'
p3701
(I00
S'1 2'
p3702
(I01
I0
tp3703
(I01
I0
tp3704
tp3705
(I00
S'1 1'
p3706
(I01
I1
tp3707
(I01
I1
tp3708
tp3709
tp3710
(I00
S'1 2'
p3711
(I00
S'1 1'
p3712
(I01
I1
tp3713
(I01
I1
tp3714
tp3715
(I00
S'0 1'
p3716
(I01
I1
tp3717
(I01
I1
tp3718
tp3719
tp3720
tp3721
tp3722
(I00
S'0 1'
p3723
(I00
S'0 2'
p3724
(I00
S'0 2'
p3725
(I00
S'1 1'
p3726
(I01
I0
tp3727
(I00
S'1 1'
p3728
(I01
I2
tp3729
(I01
I2
tp3730
tp3731
tp3732
(I00
S'1 2'
p3733
(I01
I0
tp3734
(I01
I0
tp3735
tp3736
tp3737
(I00
S'0 2'
p3738
(I01
I0
tp3739
(I00
S'1 1'
p3740
(I00
S'0 1'
p3741
(I01
I2
tp3742
(I01
I0
tp3743
tp3744
(I01
I1
tp3745
tp3746
tp3747
tp3748
(I00
S'1 1'
p3749
(I00
S'0 2'
p3750
(I01
I2
tp3751
(I01
I2
tp3752
tp3753
(I00
S'1 1'
p3754
(I00
S'1 2'
p3755
(I01
I1
tp3756
(I01
I1
tp3757
tp3758
(I00
S'0 1'
p3759
(I00
S'1 1'
p3760
(I01
I2
tp3761
(I01
I0
tp3762
tp3763
(I00
S'1 2'
p3764
(I01
I1
tp3765
(I01
I1
tp3766
tp3767
tp3768
tp3769
tp3770
tp3771
tp3772
tp3773
tp3774
tp3775
bag1
(tRp3776
(S'-12.5664 12.5664 -50 50 '
p3777
I2
F0.8500000238418579
F0.10000000149011612
F0.25
(I00
S'0 2'
p3778
(I00
S'0 1'
p3779
(I00
S'1 1'
p3780
(I00
S'1 2'
p3781
(I00
S'0 1'
p3782
(I01
I0
tp3783
(I00
S'0 2'
p3784
(I01
I0
tp3785
(I01
I1
tp3786
tp3787
tp3788
(I00
S'0 2'
p3789
(I01
I2
tp3790
(I01
I1
tp3791
tp3792
tp3793
(I00
S'0 2'
p3794
(I00
S'0 2'
p3795
(I01
I1
tp3796
(I01
I0
tp3797
tp3798
(I01
I0
tp3799
tp3800
tp3801
(I00
S'1 1'
p3802
(I01
I1
tp3803
(I00
S'0 2'
p3804
(I00
S'1 2'
p3805
(I00
S'0 1'
p3806
(I01
I0
tp3807
(I00
S'1 1'
p3808
(I01
I1
tp3809
(I00
S'0 1'
p3810
(I01
I0
tp3811
(I01
I0
tp3812
tp3813
tp3814
tp3815
(I00
S'0 1'
p3816
(I00
S'0 2'
p3817
(I01
I2
tp3818
(I01
I2
tp3819
tp3820
(I00
S'0 1'
p3821
(I01
I2
tp3822
(I01
I2
tp3823
tp3824
tp3825
tp3826
(I01
I2
tp3827
tp3828
tp3829
tp3830
(I00
S'1 1'
p3831
(I00
S'0 2'
p3832
(I00
S'0 2'
p3833
(I00
S'0 1'
p3834
(I00
S'1 1'
p3835
(I00
S'1 1'
p3836
(I01
I1
tp3837
(I01
I1
tp3838
tp3839
(I01
I0
tp3840
tp3841
(I00
S'1 1'
p3842
(I00
S'0 2'
p3843
(I01
I0
tp3844
(I01
I1
tp3845
tp3846
(I01
I0
tp3847
tp3848
tp3849
(I00
S'0 1'
p3850
(I00
S'0 1'
p3851
(I01
I0
tp3852
(I01
I1
tp3853
tp3854
(I00
S'1 1'
p3855
(I01
I2
tp3856
(I01
I1
tp3857
tp3858
tp3859
tp3860
(I00
S'0 1'
p3861
(I01
I1
tp3862
(I00
S'0 2'
p3863
(I01
I2
tp3864
(I00
S'0 2'
p3865
(I00
S'1 2'
p3866
(I01
I1
tp3867
(I00
S'1 2'
p3868
(I01
I2
tp3869
(I01
I2
tp3870
tp3871
tp3872
(I00
S'1 2'
p3873
(I01
I0
tp3874
(I01
I0
tp3875
tp3876
tp3877
tp3878
tp3879
tp3880
(I00
S'0 2'
p3881
(I00
S'0 1'
p3882
(I01
I2
tp3883
(I00
S'1 1'
p3884
(I00
S'0 1'
p3885
(I00
S'1 2'
p3886
(I01
I0
tp3887
(I01
I0
tp3888
tp3889
(I00
S'1 1'
p3890
(I01
I0
tp3891
(I01
I1
tp3892
tp3893
tp3894
(I00
S'1 2'
p3895
(I00
S'1 1'
p3896
(I01
I1
tp3897
(I01
I1
tp3898
tp3899
(I00
S'0 1'
p3900
(I01
I1
tp3901
(I01
I1
tp3902
tp3903
tp3904
tp3905
tp3906
(I00
S'0 1'
p3907
(I00
S'0 2'
p3908
(I00
S'0 2'
p3909
(I00
S'1 1'
p3910
(I01
I0
tp3911
(I00
S'1 1'
p3912
(I01
I2
tp3913
(I01
I2
tp3914
tp3915
tp3916
(I00
S'1 2'
p3917
(I01
I1
tp3918
(I01
I0
tp3919
tp3920
tp3921
(I00
S'0 2'
p3922
(I01
I0
tp3923
(I00
S'1 1'
p3924
(I00
S'0 1'
p3925
(I01
I2
tp3926
(I01
I0
tp3927
tp3928
(I01
I1
tp3929
tp3930
tp3931
tp3932
(I00
S'1 1'
p3933
(I00
S'0 2'
p3934
(I01
I2
tp3935
(I01
I2
tp3936
tp3937
(I00
S'1 1'
p3938
(I00
S'1 2'
p3939
(I01
I1
tp3940
(I01
I1
tp3941
tp3942
(I00
S'0 1'
p3943
(I00
S'1 1'
p3944
(I01
I2
tp3945
(I01
I0
tp3946
tp3947
(I00
S'1 2'
p3948
(I01
I1
tp3949
(I01
I1
tp3950
tp3951
tp3952
tp3953
tp3954
tp3955
tp3956
tp3957
tp3958
tp3959
bag1
(tRp3960
(S'-12.5664 12.5664 -50 50 '
p3961
I2
F0.8500000238418579
F0.10000000149011612
F0.25
(I00
S'0 2'
p3962
(I00
S'0 1'
p3963
(I00
S'1 1'
p3964
(I00
S'1 2'
p3965
(I00
S'0 1'
p3966
(I01
I0
tp3967
(I00
S'0 2'
p3968
(I01
I0
tp3969
(I01
I1
tp3970
tp3971
tp3972
(I00
S'0 2'
p3973
(I01
I2
tp3974
(I01
I1
tp3975
tp3976
tp3977
(I00
S'0 2'
p3978
(I00
S'0 2'
p3979
(I01
I1
tp3980
(I01
I0
tp3981
tp3982
(I01
I0
tp3983
tp3984
tp3985
(I00
S'1 1'
p3986
(I01
I1
tp3987
(I00
S'0 2'
p3988
(I00
S'1 2'
p3989
(I00
S'0 1'
p3990
(I01
I0
tp3991
(I00
S'1 1'
p3992
(I01
I1
tp3993
(I00
S'0 1'
p3994
(I01
I0
tp3995
(I01
I0
tp3996
tp3997
tp3998
tp3999
(I00
S'0 1'
p4000
(I00
S'0 2'
p4001
(I01
I2
tp4002
(I01
I2
tp4003
tp4004
(I00
S'0 1'
p4005
(I01
I2
tp4006
(I01
I2
tp4007
tp4008
tp4009
tp4010
(I01
I2
tp4011
tp4012
tp4013
tp4014
(I00
S'1 1'
p4015
(I00
S'0 2'
p4016
(I00
S'0 2'
p4017
(I00
S'0 1'
p4018
(I00
S'1 1'
p4019
(I00
S'1 1'
p4020
(I01
I1
tp4021
(I01
I1
tp4022
tp4023
(I01
I0
tp4024
tp4025
(I00
S'1 1'
p4026
(I00
S'0 2'
p4027
(I01
I0
tp4028
(I01
I1
tp4029
tp4030
(I01
I0
tp4031
tp4032
tp4033
(I00
S'0 1'
p4034
(I00
S'0 1'
p4035
(I01
I0
tp4036
(I01
I1
tp4037
tp4038
(I00
S'1 1'
p4039
(I01
I2
tp4040
(I01
I1
tp4041
tp4042
tp4043
tp4044
(I00
S'0 1'
p4045
(I01
I1
tp4046
(I00
S'0 2'
p4047
(I01
I2
tp4048
(I00
S'0 2'
p4049
(I00
S'1 2'
p4050
(I01
I1
tp4051
(I00
S'1 2'
p4052
(I01
I2
tp4053
(I01
I2
tp4054
tp4055
tp4056
(I00
S'1 2'
p4057
(I00
S'0 2'
p4058
(I01
I0
tp4059
(I01
I0
tp4060
tp4061
(I01
I0
tp4062
tp4063
tp4064
tp4065
tp4066
tp4067
(I00
S'0 2'
p4068
(I00
S'0 1'
p4069
(I01
I2
tp4070
(I00
S'1 1'
p4071
(I00
S'0 1'
p4072
(I00
S'1 2'
p4073
(I01
I0
tp4074
(I01
I0
tp4075
tp4076
(I00
S'1 1'
p4077
(I01
I1
tp4078
(I01
I1
tp4079
tp4080
tp4081
(I00
S'1 2'
p4082
(I00
S'1 1'
p4083
(I01
I1
tp4084
(I01
I1
tp4085
tp4086
(I00
S'0 1'
p4087
(I01
I1
tp4088
(I01
I1
tp4089
tp4090
tp4091
tp4092
tp4093
(I00
S'0 1'
p4094
(I00
S'0 2'
p4095
(I00
S'0 2'
p4096
(I00
S'1 1'
p4097
(I01
I0
tp4098
(I00
S'1 1'
p4099
(I01
I2
tp4100
(I01
I1
tp4101
tp4102
tp4103
(I00
S'1 2'
p4104
(I01
I0
tp4105
(I01
I0
tp4106
tp4107
tp4108
(I00
S'0 2'
p4109
(I01
I0
tp4110
(I00
S'1 1'
p4111
(I00
S'0 1'
p4112
(I01
I2
tp4113
(I01
I0
tp4114
tp4115
(I01
I1
tp4116
tp4117
tp4118
tp4119
(I00
S'1 1'
p4120
(I00
S'0 2'
p4121
(I01
I2
tp4122
(I01
I2
tp4123
tp4124
(I00
S'1 1'
p4125
(I00
S'1 2'
p4126
(I01
I1
tp4127
(I01
I1
tp4128
tp4129
(I00
S'0 1'
p4130
(I00
S'1 1'
p4131
(I01
I2
tp4132
(I01
I0
tp4133
tp4134
(I00
S'1 2'
p4135
(I01
I1
tp4136
(I01
I1
tp4137
tp4138
tp4139
tp4140
tp4141
tp4142
tp4143
tp4144
tp4145
tp4146
bag1
(tRp4147
(S'-12.5664 12.5664 -50 50 '
p4148
I2
F0.8500000238418579
F0.10000000149011612
F0.25
(I00
S'0 2'
p4149
(I00
S'0 1'
p4150
(I00
S'1 1'
p4151
(I00
S'1 2'
p4152
(I00
S'0 1'
p4153
(I01
I0
tp4154
(I00
S'0 2'
p4155
(I01
I0
tp4156
(I01
I1
tp4157
tp4158
tp4159
(I00
S'0 2'
p4160
(I01
I2
tp4161
(I01
I1
tp4162
tp4163
tp4164
(I00
S'0 2'
p4165
(I00
S'0 2'
p4166
(I01
I1
tp4167
(I01
I0
tp4168
tp4169
(I01
I0
tp4170
tp4171
tp4172
(I00
S'1 1'
p4173
(I01
I1
tp4174
(I00
S'0 2'
p4175
(I00
S'1 2'
p4176
(I00
S'0 1'
p4177
(I01
I0
tp4178
(I00
S'1 1'
p4179
(I01
I1
tp4180
(I00
S'0 1'
p4181
(I01
I0
tp4182
(I01
I0
tp4183
tp4184
tp4185
tp4186
(I00
S'0 1'
p4187
(I00
S'0 2'
p4188
(I01
I2
tp4189
(I01
I2
tp4190
tp4191
(I00
S'0 1'
p4192
(I01
I2
tp4193
(I01
I2
tp4194
tp4195
tp4196
tp4197
(I01
I2
tp4198
tp4199
tp4200
tp4201
(I00
S'1 1'
p4202
(I00
S'0 2'
p4203
(I00
S'0 2'
p4204
(I00
S'0 1'
p4205
(I00
S'1 1'
p4206
(I00
S'1 1'
p4207
(I01
I1
tp4208
(I01
I1
tp4209
tp4210
(I01
I0
tp4211
tp4212
(I00
S'1 1'
p4213
(I00
S'0 2'
p4214
(I01
I0
tp4215
(I01
I1
tp4216
tp4217
(I01
I0
tp4218
tp4219
tp4220
(I00
S'0 1'
p4221
(I00
S'0 1'
p4222
(I01
I0
tp4223
(I01
I1
tp4224
tp4225
(I00
S'1 1'
p4226
(I01
I2
tp4227
(I01
I1
tp4228
tp4229
tp4230
tp4231
(I00
S'0 1'
p4232
(I01
I1
tp4233
(I00
S'0 2'
p4234
(I01
I2
tp4235
(I00
S'0 2'
p4236
(I00
S'1 2'
p4237
(I01
I1
tp4238
(I00
S'1 2'
p4239
(I01
I2
tp4240
(I01
I2
tp4241
tp4242
tp4243
(I00
S'1 2'
p4244
(I01
I0
tp4245
(I01
I0
tp4246
tp4247
tp4248
tp4249
tp4250
tp4251
(I00
S'0 2'
p4252
(I00
S'0 1'
p4253
(I01
I2
tp4254
(I00
S'1 1'
p4255
(I00
S'0 1'
p4256
(I00
S'1 2'
p4257
(I01
I0
tp4258
(I01
I0
tp4259
tp4260
(I00
S'1 1'
p4261
(I01
I0
tp4262
(I01
I1
tp4263
tp4264
tp4265
(I00
S'1 2'
p4266
(I00
S'1 1'
p4267
(I01
I1
tp4268
(I01
I1
tp4269
tp4270
(I00
S'0 1'
p4271
(I01
I1
tp4272
(I01
I1
tp4273
tp4274
tp4275
tp4276
tp4277
(I00
S'0 1'
p4278
(I00
S'0 2'
p4279
(I00
S'0 2'
p4280
(I00
S'1 1'
p4281
(I01
I0
tp4282
(I00
S'1 1'
p4283
(I01
I2
tp4284
(I01
I2
tp4285
tp4286
tp4287
(I00
S'1 2'
p4288
(I01
I1
tp4289
(I01
I0
tp4290
tp4291
tp4292
(I00
S'0 2'
p4293
(I01
I0
tp4294
(I00
S'1 1'
p4295
(I00
S'0 1'
p4296
(I01
I2
tp4297
(I01
I0
tp4298
tp4299
(I01
I1
tp4300
tp4301
tp4302
tp4303
(I00
S'1 1'
p4304
(I00
S'0 2'
p4305
(I01
I2
tp4306
(I01
I2
tp4307
tp4308
(I00
S'1 1'
p4309
(I00
S'1 2'
p4310
(I01
I1
tp4311
(I01
I1
tp4312
tp4313
(I00
S'0 1'
p4314
(I00
S'1 1'
p4315
(I01
I2
tp4316
(I01
I0
tp4317
tp4318
(I00
S'1 2'
p4319
(I01
I1
tp4320
(I01
I1
tp4321
tp4322
tp4323
tp4324
tp4325
tp4326
tp4327
tp4328
tp4329
tp4330
bag1
(tRp4331
(S'-12.5664 12.5664 -50 50 '
p4332
I2
F0.8500000238418579
F0.10000000149011612
F0.25
(I00
S'0 2'
p4333
(I00
S'0 1'
p4334
(I00
S'1 1'
p4335
(I00
S'1 2'
p4336
(I00
S'0 1'
p4337
(I01
I0
tp4338
(I00
S'0 2'
p4339
(I01
I0
tp4340
(I01
I1
tp4341
tp4342
tp4343
(I00
S'0 2'
p4344
(I01
I2
tp4345
(I01
I1
tp4346
tp4347
tp4348
(I00
S'0 2'
p4349
(I00
S'0 2'
p4350
(I01
I1
tp4351
(I01
I0
tp4352
tp4353
(I01
I0
tp4354
tp4355
tp4356
(I00
S'1 1'
p4357
(I01
I1
tp4358
(I00
S'0 2'
p4359
(I00
S'1 2'
p4360
(I00
S'0 1'
p4361
(I01
I0
tp4362
(I00
S'1 1'
p4363
(I01
I1
tp4364
(I00
S'0 1'
p4365
(I01
I0
tp4366
(I01
I0
tp4367
tp4368
tp4369
tp4370
(I00
S'0 1'
p4371
(I00
S'0 2'
p4372
(I01
I2
tp4373
(I01
I2
tp4374
tp4375
(I00
S'0 1'
p4376
(I01
I2
tp4377
(I01
I2
tp4378
tp4379
tp4380
tp4381
(I01
I2
tp4382
tp4383
tp4384
tp4385
(I00
S'1 1'
p4386
(I00
S'0 2'
p4387
(I00
S'0 2'
p4388
(I00
S'0 1'
p4389
(I00
S'1 1'
p4390
(I00
S'1 1'
p4391
(I01
I1
tp4392
(I01
I1
tp4393
tp4394
(I01
I0
tp4395
tp4396
(I00
S'1 1'
p4397
(I00
S'0 2'
p4398
(I01
I0
tp4399
(I01
I1
tp4400
tp4401
(I01
I0
tp4402
tp4403
tp4404
(I00
S'0 1'
p4405
(I00
S'0 1'
p4406
(I01
I0
tp4407
(I01
I1
tp4408
tp4409
(I00
S'1 1'
p4410
(I01
I2
tp4411
(I01
I1
tp4412
tp4413
tp4414
tp4415
(I00
S'0 1'
p4416
(I01
I1
tp4417
(I00
S'0 2'
p4418
(I01
I2
tp4419
(I00
S'0 2'
p4420
(I00
S'1 2'
p4421
(I01
I1
tp4422
(I00
S'1 2'
p4423
(I01
I2
tp4424
(I01
I2
tp4425
tp4426
tp4427
(I00
S'1 2'
p4428
(I01
I0
tp4429
(I01
I0
tp4430
tp4431
tp4432
tp4433
tp4434
tp4435
(I00
S'0 2'
p4436
(I00
S'0 1'
p4437
(I01
I2
tp4438
(I00
S'1 1'
p4439
(I00
S'0 1'
p4440
(I00
S'1 2'
p4441
(I01
I0
tp4442
(I01
I0
tp4443
tp4444
(I00
S'1 1'
p4445
(I01
I0
tp4446
(I01
I1
tp4447
tp4448
tp4449
(I00
S'1 2'
p4450
(I00
S'1 1'
p4451
(I01
I1
tp4452
(I01
I1
tp4453
tp4454
(I00
S'0 1'
p4455
(I01
I1
tp4456
(I01
I1
tp4457
tp4458
tp4459
tp4460
tp4461
(I00
S'0 1'
p4462
(I00
S'0 2'
p4463
(I00
S'0 2'
p4464
(I00
S'1 1'
p4465
(I01
I0
tp4466
(I00
S'1 1'
p4467
(I01
I2
tp4468
(I01
I2
tp4469
tp4470
tp4471
(I00
S'1 2'
p4472
(I01
I1
tp4473
(I01
I0
tp4474
tp4475
tp4476
(I00
S'0 2'
p4477
(I01
I0
tp4478
(I00
S'1 1'
p4479
(I00
S'0 1'
p4480
(I01
I2
tp4481
(I01
I0
tp4482
tp4483
(I01
I1
tp4484
tp4485
tp4486
tp4487
(I00
S'1 1'
p4488
(I00
S'0 2'
p4489
(I01
I2
tp4490
(I01
I2
tp4491
tp4492
(I00
S'1 1'
p4493
(I00
S'1 2'
p4494
(I01
I1
tp4495
(I01
I1
tp4496
tp4497
(I00
S'0 1'
p4498
(I00
S'1 1'
p4499
(I01
I2
tp4500
(I01
I0
tp4501
tp4502
(I00
S'1 2'
p4503
(I01
I1
tp4504
(I01
I1
tp4505
tp4506
tp4507
tp4508
tp4509
tp4510
tp4511
tp4512
tp4513
tp4514
bag1
(tRp4515
(S'-12.5664 12.5664 -50 50 '
p4516
I2
F0.8500000238418579
F0.10000000149011612
F0.25
(I00
S'0 2'
p4517
(I00
S'0 1'
p4518
(I00
S'1 1'
p4519
(I00
S'1 2'
p4520
(I00
S'0 1'
p4521
(I01
I0
tp4522
(I00
S'0 2'
p4523
(I01
I0
tp4524
(I01
I1
tp4525
tp4526
tp4527
(I00
S'0 2'
p4528
(I01
I2
tp4529
(I01
I1
tp4530
tp4531
tp4532
(I00
S'0 2'
p4533
(I00
S'0 2'
p4534
(I01
I1
tp4535
(I01
I0
tp4536
tp4537
(I01
I0
tp4538
tp4539
tp4540
(I00
S'1 1'
p4541
(I01
I1
tp4542
(I00
S'0 2'
p4543
(I00
S'1 2'
p4544
(I00
S'0 1'
p4545
(I01
I0
tp4546
(I00
S'1 1'
p4547
(I01
I1
tp4548
(I00
S'0 1'
p4549
(I01
I0
tp4550
(I01
I0
tp4551
tp4552
tp4553
tp4554
(I00
S'0 1'
p4555
(I00
S'0 2'
p4556
(I01
I2
tp4557
(I01
I2
tp4558
tp4559
(I00
S'0 1'
p4560
(I01
I2
tp4561
(I01
I2
tp4562
tp4563
tp4564
tp4565
(I01
I2
tp4566
tp4567
tp4568
tp4569
(I00
S'1 1'
p4570
(I00
S'0 2'
p4571
(I00
S'0 2'
p4572
(I00
S'0 1'
p4573
(I00
S'1 1'
p4574
(I00
S'1 1'
p4575
(I01
I1
tp4576
(I01
I1
tp4577
tp4578
(I01
I0
tp4579
tp4580
(I00
S'1 1'
p4581
(I00
S'0 2'
p4582
(I01
I0
tp4583
(I01
I1
tp4584
tp4585
(I01
I0
tp4586
tp4587
tp4588
(I00
S'0 1'
p4589
(I00
S'0 1'
p4590
(I01
I0
tp4591
(I01
I1
tp4592
tp4593
(I01
I1
tp4594
tp4595
tp4596
(I00
S'0 1'
p4597
(I01
I1
tp4598
(I00
S'0 2'
p4599
(I01
I2
tp4600
(I00
S'0 2'
p4601
(I00
S'1 2'
p4602
(I01
I1
tp4603
(I00
S'1 2'
p4604
(I01
I2
tp4605
(I01
I2
tp4606
tp4607
tp4608
(I00
S'1 2'
p4609
(I01
I0
tp4610
(I01
I0
tp4611
tp4612
tp4613
tp4614
tp4615
tp4616
(I00
S'0 2'
p4617
(I00
S'0 1'
p4618
(I01
I2
tp4619
(I00
S'1 1'
p4620
(I00
S'0 1'
p4621
(I00
S'1 2'
p4622
(I01
I0
tp4623
(I01
I0
tp4624
tp4625
(I00
S'1 1'
p4626
(I01
I1
tp4627
(I01
I1
tp4628
tp4629
tp4630
(I00
S'1 2'
p4631
(I00
S'1 1'
p4632
(I01
I1
tp4633
(I01
I1
tp4634
tp4635
(I00
S'0 1'
p4636
(I01
I1
tp4637
(I01
I1
tp4638
tp4639
tp4640
tp4641
tp4642
(I00
S'0 1'
p4643
(I00
S'0 2'
p4644
(I00
S'0 2'
p4645
(I00
S'1 1'
p4646
(I01
I0
tp4647
(I00
S'1 1'
p4648
(I01
I2
tp4649
(I01
I1
tp4650
tp4651
tp4652
(I00
S'1 2'
p4653
(I01
I0
tp4654
(I01
I0
tp4655
tp4656
tp4657
(I00
S'0 2'
p4658
(I01
I0
tp4659
(I00
S'1 1'
p4660
(I00
S'0 1'
p4661
(I01
I2
tp4662
(I01
I0
tp4663
tp4664
(I01
I1
tp4665
tp4666
tp4667
tp4668
(I00
S'1 1'
p4669
(I00
S'0 2'
p4670
(I01
I2
tp4671
(I01
I2
tp4672
tp4673
(I00
S'1 1'
p4674
(I00
S'1 2'
p4675
(I01
I1
tp4676
(I01
I1
tp4677
tp4678
(I00
S'0 1'
p4679
(I00
S'1 1'
p4680
(I01
I2
tp4681
(I01
I0
tp4682
tp4683
(I00
S'1 2'
p4684
(I01
I1
tp4685
(I01
I1
tp4686
tp4687
tp4688
tp4689
tp4690
tp4691
tp4692
tp4693
tp4694
tp4695
bag1
(tRp4696
(S'-12.5664 12.5664 -50 50 '
p4697
I2
F0.8500000238418579
F0.10000000149011612
F0.25
(I00
S'0 2'
p4698
(I00
S'0 1'
p4699
(I00
S'1 1'
p4700
(I00
S'1 2'
p4701
(I00
S'0 1'
p4702
(I01
I0
tp4703
(I00
S'0 2'
p4704
(I01
I0
tp4705
(I01
I1
tp4706
tp4707
tp4708
(I00
S'0 2'
p4709
(I01
I2
tp4710
(I01
I1
tp4711
tp4712
tp4713
(I00
S'0 2'
p4714
(I00
S'0 2'
p4715
(I01
I1
tp4716
(I01
I0
tp4717
tp4718
(I01
I0
tp4719
tp4720
tp4721
(I00
S'1 1'
p4722
(I01
I1
tp4723
(I00
S'0 2'
p4724
(I00
S'1 2'
p4725
(I00
S'0 1'
p4726
(I01
I0
tp4727
(I00
S'1 1'
p4728
(I01
I1
tp4729
(I00
S'0 1'
p4730
(I01
I0
tp4731
(I01
I0
tp4732
tp4733
tp4734
tp4735
(I00
S'0 1'
p4736
(I00
S'0 2'
p4737
(I01
I2
tp4738
(I01
I2
tp4739
tp4740
(I00
S'0 1'
p4741
(I01
I2
tp4742
(I01
I2
tp4743
tp4744
tp4745
tp4746
(I01
I2
tp4747
tp4748
tp4749
tp4750
(I00
S'1 1'
p4751
(I00
S'0 2'
p4752
(I00
S'0 2'
p4753
(I00
S'0 1'
p4754
(I00
S'1 1'
p4755
(I00
S'1 1'
p4756
(I01
I1
tp4757
(I01
I1
tp4758
tp4759
(I01
I0
tp4760
tp4761
(I00
S'1 1'
p4762
(I00
S'0 2'
p4763
(I01
I0
tp4764
(I01
I1
tp4765
tp4766
(I01
I0
tp4767
tp4768
tp4769
(I00
S'0 1'
p4770
(I00
S'0 1'
p4771
(I01
I0
tp4772
(I01
I1
tp4773
tp4774
(I00
S'1 1'
p4775
(I01
I2
tp4776
(I01
I1
tp4777
tp4778
tp4779
tp4780
(I00
S'0 1'
p4781
(I01
I1
tp4782
(I00
S'0 2'
p4783
(I01
I2
tp4784
(I00
S'0 2'
p4785
(I00
S'1 2'
p4786
(I01
I1
tp4787
(I00
S'1 2'
p4788
(I01
I2
tp4789
(I01
I2
tp4790
tp4791
tp4792
(I00
S'1 2'
p4793
(I01
I0
tp4794
(I01
I0
tp4795
tp4796
tp4797
tp4798
tp4799
tp4800
(I00
S'0 2'
p4801
(I00
S'0 1'
p4802
(I01
I2
tp4803
(I00
S'1 1'
p4804
(I00
S'0 1'
p4805
(I00
S'1 2'
p4806
(I01
I0
tp4807
(I01
I0
tp4808
tp4809
(I00
S'1 1'
p4810
(I01
I0
tp4811
(I01
I1
tp4812
tp4813
tp4814
(I00
S'1 2'
p4815
(I00
S'1 1'
p4816
(I01
I1
tp4817
(I01
I1
tp4818
tp4819
(I00
S'0 1'
p4820
(I01
I1
tp4821
(I01
I1
tp4822
tp4823
tp4824
tp4825
tp4826
(I00
S'0 1'
p4827
(I00
S'0 2'
p4828
(I00
S'0 2'
p4829
(I00
S'1 1'
p4830
(I01
I0
tp4831
(I00
S'1 1'
p4832
(I01
I2
tp4833
(I01
I2
tp4834
tp4835
tp4836
(I00
S'1 2'
p4837
(I01
I1
tp4838
(I01
I0
tp4839
tp4840
tp4841
(I00
S'0 2'
p4842
(I01
I0
tp4843
(I00
S'1 1'
p4844
(I00
S'0 1'
p4845
(I01
I2
tp4846
(I01
I0
tp4847
tp4848
(I01
I1
tp4849
tp4850
tp4851
tp4852
(I00
S'1 1'
p4853
(I00
S'0 2'
p4854
(I01
I2
tp4855
(I01
I2
tp4856
tp4857
(I00
S'1 1'
p4858
(I00
S'1 2'
p4859
(I01
I1
tp4860
(I01
I1
tp4861
tp4862
(I00
S'0 1'
p4863
(I00
S'1 1'
p4864
(I01
I2
tp4865
(I00
S'1 1'
p4866
(I01
I0
tp4867
(I01
I0
tp4868
tp4869
tp4870
(I00
S'1 2'
p4871
(I01
I1
tp4872
(I01
I1
tp4873
tp4874
tp4875
tp4876
tp4877
tp4878
tp4879
tp4880
tp4881
tp4882
bag1
(tRp4883
(S'-12.5664 12.5664 -50 50 '
p4884
I2
F0.8500000238418579
F0.10000000149011612
F0.25
(I00
S'0 2'
p4885
(I00
S'0 1'
p4886
(I00
S'1 1'
p4887
(I00
S'1 2'
p4888
(I00
S'0 1'
p4889
(I01
I0
tp4890
(I00
S'0 2'
p4891
(I01
I0
tp4892
(I01
I1
tp4893
tp4894
tp4895
(I00
S'0 2'
p4896
(I01
I2
tp4897
(I01
I1
tp4898
tp4899
tp4900
(I00
S'0 2'
p4901
(I00
S'0 2'
p4902
(I01
I1
tp4903
(I01
I0
tp4904
tp4905
(I01
I0
tp4906
tp4907
tp4908
(I00
S'1 1'
p4909
(I01
I1
tp4910
(I00
S'0 2'
p4911
(I00
S'1 2'
p4912
(I00
S'0 1'
p4913
(I01
I0
tp4914
(I00
S'1 1'
p4915
(I01
I1
tp4916
(I00
S'0 1'
p4917
(I01
I0
tp4918
(I01
I0
tp4919
tp4920
tp4921
tp4922
(I00
S'0 1'
p4923
(I00
S'0 2'
p4924
(I01
I2
tp4925
(I01
I2
tp4926
tp4927
(I00
S'0 1'
p4928
(I01
I2
tp4929
(I01
I2
tp4930
tp4931
tp4932
tp4933
(I01
I2
tp4934
tp4935
tp4936
tp4937
(I00
S'1 1'
p4938
(I00
S'0 2'
p4939
(I00
S'0 2'
p4940
(I00
S'0 1'
p4941
(I00
S'1 1'
p4942
(I00
S'1 1'
p4943
(I01
I1
tp4944
(I01
I1
tp4945
tp4946
(I01
I0
tp4947
tp4948
(I00
S'1 1'
p4949
(I00
S'0 2'
p4950
(I01
I0
tp4951
(I01
I1
tp4952
tp4953
(I01
I0
tp4954
tp4955
tp4956
(I00
S'0 1'
p4957
(I00
S'0 1'
p4958
(I01
I0
tp4959
(I01
I1
tp4960
tp4961
(I00
S'1 1'
p4962
(I01
I2
tp4963
(I01
I1
tp4964
tp4965
tp4966
tp4967
(I00
S'0 1'
p4968
(I01
I1
tp4969
(I00
S'0 2'
p4970
(I01
I2
tp4971
(I00
S'0 2'
p4972
(I00
S'1 2'
p4973
(I01
I1
tp4974
(I00
S'1 2'
p4975
(I01
I2
tp4976
(I01
I2
tp4977
tp4978
tp4979
(I00
S'1 2'
p4980
(I01
I0
tp4981
(I01
I0
tp4982
tp4983
tp4984
tp4985
tp4986
tp4987
(I00
S'0 2'
p4988
(I00
S'0 1'
p4989
(I01
I2
tp4990
(I00
S'1 1'
p4991
(I00
S'0 1'
p4992
(I00
S'1 2'
p4993
(I01
I0
tp4994
(I01
I0
tp4995
tp4996
(I00
S'1 1'
p4997
(I01
I0
tp4998
(I01
I1
tp4999
tp5000
tp5001
(I00
S'1 2'
p5002
(I00
S'1 1'
p5003
(I01
I1
tp5004
(I01
I1
tp5005
tp5006
(I00
S'0 1'
p5007
(I01
I1
tp5008
(I01
I1
tp5009
tp5010
tp5011
tp5012
tp5013
(I00
S'0 1'
p5014
(I00
S'0 2'
p5015
(I00
S'0 2'
p5016
(I00
S'1 1'
p5017
(I01
I0
tp5018
(I00
S'1 1'
p5019
(I01
I2
tp5020
(I01
I2
tp5021
tp5022
tp5023
(I00
S'1 2'
p5024
(I01
I1
tp5025
(I01
I0
tp5026
tp5027
tp5028
(I00
S'0 2'
p5029
(I01
I0
tp5030
(I00
S'1 1'
p5031
(I00
S'0 1'
p5032
(I01
I2
tp5033
(I01
I0
tp5034
tp5035
(I01
I1
tp5036
tp5037
tp5038
tp5039
(I00
S'1 1'
p5040
(I00
S'0 2'
p5041
(I01
I2
tp5042
(I01
I2
tp5043
tp5044
(I00
S'1 1'
p5045
(I00
S'1 2'
p5046
(I01
I1
tp5047
(I01
I1
tp5048
tp5049
(I00
S'0 1'
p5050
(I00
S'1 1'
p5051
(I01
I2
tp5052
(I01
I0
tp5053
tp5054
(I00
S'1 2'
p5055
(I01
I1
tp5056
(I01
I1
tp5057
tp5058
tp5059
tp5060
tp5061
tp5062
tp5063
tp5064
tp5065
tp5066
bag1
(tRp5067
(S'-12.5664 12.5664 -50 50 '
p5068
I2
F0.8500000238418579
F0.10000000149011612
F0.25
(I00
S'0 2'
p5069
(I00
S'0 1'
p5070
(I00
S'1 1'
p5071
(I00
S'1 2'
p5072
(I00
S'0 1'
p5073
(I01
I0
tp5074
(I00
S'0 2'
p5075
(I01
I0
tp5076
(I01
I1
tp5077
tp5078
tp5079
(I00
S'0 2'
p5080
(I01
I2
tp5081
(I01
I1
tp5082
tp5083
tp5084
(I00
S'0 2'
p5085
(I00
S'0 2'
p5086
(I01
I1
tp5087
(I01
I0
tp5088
tp5089
(I01
I0
tp5090
tp5091
tp5092
(I00
S'1 1'
p5093
(I01
I1
tp5094
(I00
S'0 2'
p5095
(I00
S'1 2'
p5096
(I00
S'0 1'
p5097
(I01
I0
tp5098
(I00
S'1 1'
p5099
(I01
I1
tp5100
(I00
S'0 1'
p5101
(I01
I0
tp5102
(I01
I0
tp5103
tp5104
tp5105
tp5106
(I00
S'0 1'
p5107
(I00
S'0 2'
p5108
(I01
I2
tp5109
(I01
I2
tp5110
tp5111
(I00
S'0 1'
p5112
(I01
I2
tp5113
(I01
I2
tp5114
tp5115
tp5116
tp5117
(I01
I2
tp5118
tp5119
tp5120
tp5121
(I00
S'1 1'
p5122
(I00
S'0 2'
p5123
(I00
S'0 2'
p5124
(I00
S'0 1'
p5125
(I00
S'1 1'
p5126
(I00
S'1 1'
p5127
(I01
I1
tp5128
(I01
I1
tp5129
tp5130
(I01
I0
tp5131
tp5132
(I00
S'1 1'
p5133
(I00
S'0 2'
p5134
(I01
I0
tp5135
(I01
I1
tp5136
tp5137
(I01
I0
tp5138
tp5139
tp5140
(I00
S'0 1'
p5141
(I00
S'0 1'
p5142
(I01
I0
tp5143
(I01
I1
tp5144
tp5145
(I00
S'1 1'
p5146
(I01
I2
tp5147
(I01
I1
tp5148
tp5149
tp5150
tp5151
(I00
S'0 1'
p5152
(I01
I1
tp5153
(I00
S'0 2'
p5154
(I01
I2
tp5155
(I00
S'0 2'
p5156
(I00
S'1 2'
p5157
(I01
I1
tp5158
(I00
S'1 2'
p5159
(I01
I2
tp5160
(I01
I2
tp5161
tp5162
tp5163
(I00
S'1 2'
p5164
(I01
I0
tp5165
(I01
I0
tp5166
tp5167
tp5168
tp5169
tp5170
tp5171
(I00
S'0 2'
p5172
(I00
S'0 1'
p5173
(I01
I2
tp5174
(I00
S'1 1'
p5175
(I00
S'0 1'
p5176
(I00
S'1 2'
p5177
(I01
I0
tp5178
(I01
I0
tp5179
tp5180
(I00
S'1 1'
p5181
(I01
I0
tp5182
(I01
I1
tp5183
tp5184
tp5185
(I00
S'1 2'
p5186
(I00
S'1 1'
p5187
(I01
I1
tp5188
(I01
I1
tp5189
tp5190
(I00
S'0 1'
p5191
(I01
I1
tp5192
(I01
I1
tp5193
tp5194
tp5195
tp5196
tp5197
(I00
S'0 1'
p5198
(I00
S'0 2'
p5199
(I00
S'0 2'
p5200
(I00
S'1 1'
p5201
(I01
I0
tp5202
(I00
S'1 1'
p5203
(I01
I2
tp5204
(I01
I2
tp5205
tp5206
tp5207
(I00
S'1 2'
p5208
(I01
I1
tp5209
(I01
I0
tp5210
tp5211
tp5212
(I00
S'0 2'
p5213
(I01
I0
tp5214
(I00
S'1 1'
p5215
(I00
S'0 1'
p5216
(I01
I2
tp5217
(I01
I0
tp5218
tp5219
(I01
I1
tp5220
tp5221
tp5222
tp5223
(I00
S'1 1'
p5224
(I00
S'0 2'
p5225
(I01
I2
tp5226
(I01
I2
tp5227
tp5228
(I00
S'1 1'
p5229
(I00
S'1 2'
p5230
(I01
I1
tp5231
(I01
I1
tp5232
tp5233
(I00
S'0 1'
p5234
(I00
S'1 1'
p5235
(I01
I2
tp5236
(I01
I0
tp5237
tp5238
(I00
S'1 2'
p5239
(I01
I1
tp5240
(I01
I1
tp5241
tp5242
tp5243
tp5244
tp5245
tp5246
tp5247
tp5248
tp5249
tp5250
bag1
(tRp5251
(S'-12.5664 12.5664 -50 50 '
p5252
I2
F0.8500000238418579
F0.10000000149011612
F0.25
(I00
S'0 2'
p5253
(I00
S'0 1'
p5254
(I00
S'1 1'
p5255
(I00
S'1 2'
p5256
(I00
S'0 1'
p5257
(I01
I0
tp5258
(I00
S'0 2'
p5259
(I01
I0
tp5260
(I01
I1
tp5261
tp5262
tp5263
(I00
S'0 2'
p5264
(I01
I2
tp5265
(I01
I1
tp5266
tp5267
tp5268
(I00
S'0 2'
p5269
(I00
S'0 2'
p5270
(I01
I1
tp5271
(I01
I0
tp5272
tp5273
(I01
I0
tp5274
tp5275
tp5276
(I00
S'1 1'
p5277
(I01
I1
tp5278
(I00
S'0 2'
p5279
(I00
S'1 2'
p5280
(I00
S'0 1'
p5281
(I01
I0
tp5282
(I00
S'1 1'
p5283
(I01
I1
tp5284
(I00
S'0 1'
p5285
(I01
I0
tp5286
(I01
I0
tp5287
tp5288
tp5289
tp5290
(I00
S'0 1'
p5291
(I00
S'0 2'
p5292
(I01
I2
tp5293
(I01
I2
tp5294
tp5295
(I00
S'0 1'
p5296
(I01
I2
tp5297
(I01
I2
tp5298
tp5299
tp5300
tp5301
(I01
I2
tp5302
tp5303
tp5304
tp5305
(I00
S'1 1'
p5306
(I00
S'0 2'
p5307
(I00
S'0 2'
p5308
(I00
S'0 1'
p5309
(I00
S'1 1'
p5310
(I00
S'1 1'
p5311
(I01
I1
tp5312
(I01
I1
tp5313
tp5314
(I01
I0
tp5315
tp5316
(I00
S'1 1'
p5317
(I00
S'0 2'
p5318
(I01
I0
tp5319
(I01
I1
tp5320
tp5321
(I01
I0
tp5322
tp5323
tp5324
(I00
S'0 1'
p5325
(I00
S'0 1'
p5326
(I01
I0
tp5327
(I01
I1
tp5328
tp5329
(I00
S'1 1'
p5330
(I01
I2
tp5331
(I01
I1
tp5332
tp5333
tp5334
tp5335
(I00
S'0 1'
p5336
(I01
I1
tp5337
(I00
S'0 2'
p5338
(I01
I2
tp5339
(I00
S'0 2'
p5340
(I00
S'1 2'
p5341
(I01
I1
tp5342
(I00
S'1 2'
p5343
(I01
I2
tp5344
(I01
I2
tp5345
tp5346
tp5347
(I00
S'1 2'
p5348
(I01
I0
tp5349
(I01
I0
tp5350
tp5351
tp5352
tp5353
tp5354
tp5355
(I00
S'0 2'
p5356
(I00
S'0 1'
p5357
(I01
I2
tp5358
(I00
S'1 1'
p5359
(I00
S'0 1'
p5360
(I00
S'1 2'
p5361
(I01
I0
tp5362
(I01
I0
tp5363
tp5364
(I00
S'1 1'
p5365
(I01
I1
tp5366
(I01
I1
tp5367
tp5368
tp5369
(I00
S'1 2'
p5370
(I00
S'1 1'
p5371
(I01
I1
tp5372
(I01
I1
tp5373
tp5374
(I00
S'0 1'
p5375
(I01
I1
tp5376
(I01
I1
tp5377
tp5378
tp5379
tp5380
tp5381
(I00
S'0 1'
p5382
(I00
S'0 2'
p5383
(I00
S'0 2'
p5384
(I00
S'1 1'
p5385
(I01
I0
tp5386
(I00
S'1 1'
p5387
(I01
I2
tp5388
(I01
I1
tp5389
tp5390
tp5391
(I00
S'1 2'
p5392
(I01
I0
tp5393
(I01
I0
tp5394
tp5395
tp5396
(I00
S'0 2'
p5397
(I01
I0
tp5398
(I00
S'1 1'
p5399
(I00
S'0 1'
p5400
(I01
I2
tp5401
(I01
I0
tp5402
tp5403
(I01
I1
tp5404
tp5405
tp5406
tp5407
(I00
S'1 1'
p5408
(I00
S'0 2'
p5409
(I01
I2
tp5410
(I01
I2
tp5411
tp5412
(I00
S'1 1'
p5413
(I00
S'1 2'
p5414
(I01
I1
tp5415
(I01
I1
tp5416
tp5417
(I00
S'0 1'
p5418
(I00
S'1 1'
p5419
(I01
I2
tp5420
(I01
I0
tp5421
tp5422
(I00
S'1 2'
p5423
(I01
I1
tp5424
(I01
I1
tp5425
tp5426
tp5427
tp5428
tp5429
tp5430
tp5431
tp5432
tp5433
tp5434
bag1
(tRp5435
(S'-12.5664 12.5664 -50 50 '
p5436
I2
F0.8500000238418579
F0.10000000149011612
F0.25
(I00
S'0 2'
p5437
(I00
S'0 1'
p5438
(I00
S'1 1'
p5439
(I00
S'1 2'
p5440
(I00
S'0 1'
p5441
(I01
I0
tp5442
(I00
S'0 2'
p5443
(I01
I0
tp5444
(I01
I1
tp5445
tp5446
tp5447
(I00
S'0 2'
p5448
(I01
I2
tp5449
(I01
I1
tp5450
tp5451
tp5452
(I00
S'0 2'
p5453
(I00
S'0 2'
p5454
(I01
I1
tp5455
(I01
I0
tp5456
tp5457
(I01
I0
tp5458
tp5459
tp5460
(I00
S'1 1'
p5461
(I01
I1
tp5462
(I00
S'0 2'
p5463
(I00
S'1 2'
p5464
(I00
S'0 1'
p5465
(I01
I0
tp5466
(I00
S'1 1'
p5467
(I01
I1
tp5468
(I00
S'0 1'
p5469
(I01
I0
tp5470
(I01
I0
tp5471
tp5472
tp5473
tp5474
(I00
S'0 1'
p5475
(I00
S'0 2'
p5476
(I01
I2
tp5477
(I01
I2
tp5478
tp5479
(I00
S'0 1'
p5480
(I01
I2
tp5481
(I01
I2
tp5482
tp5483
tp5484
tp5485
(I01
I2
tp5486
tp5487
tp5488
tp5489
(I00
S'1 1'
p5490
(I00
S'0 2'
p5491
(I00
S'0 2'
p5492
(I00
S'0 1'
p5493
(I00
S'1 1'
p5494
(I00
S'1 1'
p5495
(I01
I1
tp5496
(I01
I1
tp5497
tp5498
(I01
I0
tp5499
tp5500
(I00
S'1 1'
p5501
(I00
S'0 2'
p5502
(I01
I0
tp5503
(I01
I1
tp5504
tp5505
(I01
I0
tp5506
tp5507
tp5508
(I00
S'0 1'
p5509
(I00
S'0 1'
p5510
(I01
I0
tp5511
(I01
I1
tp5512
tp5513
(I00
S'1 1'
p5514
(I01
I2
tp5515
(I01
I1
tp5516
tp5517
tp5518
tp5519
(I00
S'0 1'
p5520
(I01
I1
tp5521
(I00
S'0 2'
p5522
(I01
I2
tp5523
(I00
S'0 2'
p5524
(I00
S'1 2'
p5525
(I01
I1
tp5526
(I00
S'1 2'
p5527
(I01
I2
tp5528
(I01
I2
tp5529
tp5530
tp5531
(I00
S'1 2'
p5532
(I01
I0
tp5533
(I01
I0
tp5534
tp5535
tp5536
tp5537
tp5538
tp5539
(I00
S'0 2'
p5540
(I00
S'0 1'
p5541
(I01
I2
tp5542
(I00
S'1 1'
p5543
(I00
S'0 1'
p5544
(I00
S'1 2'
p5545
(I01
I0
tp5546
(I01
I0
tp5547
tp5548
(I00
S'1 1'
p5549
(I01
I1
tp5550
(I01
I1
tp5551
tp5552
tp5553
(I00
S'1 2'
p5554
(I00
S'1 1'
p5555
(I01
I1
tp5556
(I01
I1
tp5557
tp5558
(I00
S'0 1'
p5559
(I01
I1
tp5560
(I01
I1
tp5561
tp5562
tp5563
tp5564
tp5565
(I00
S'0 1'
p5566
(I00
S'0 2'
p5567
(I00
S'0 2'
p5568
(I00
S'1 1'
p5569
(I01
I0
tp5570
(I00
S'1 1'
p5571
(I01
I2
tp5572
(I01
I1
tp5573
tp5574
tp5575
(I00
S'1 2'
p5576
(I01
I2
tp5577
(I01
I0
tp5578
tp5579
tp5580
(I00
S'0 2'
p5581
(I01
I0
tp5582
(I00
S'1 1'
p5583
(I00
S'0 1'
p5584
(I01
I2
tp5585
(I01
I0
tp5586
tp5587
(I01
I1
tp5588
tp5589
tp5590
tp5591
(I00
S'1 1'
p5592
(I00
S'0 2'
p5593
(I01
I2
tp5594
(I01
I2
tp5595
tp5596
(I00
S'1 1'
p5597
(I00
S'1 2'
p5598
(I01
I1
tp5599
(I01
I1
tp5600
tp5601
(I00
S'0 1'
p5602
(I00
S'1 1'
p5603
(I01
I2
tp5604
(I01
I0
tp5605
tp5606
(I00
S'1 2'
p5607
(I01
I1
tp5608
(I01
I1
tp5609
tp5610
tp5611
tp5612
tp5613
tp5614
tp5615
tp5616
tp5617
tp5618
bag1
(tRp5619
(S'-12.5664 12.5664 -50 50 '
p5620
I2
F0.8500000238418579
F0.10000000149011612
F0.25
(I00
S'0 2'
p5621
(I00
S'0 1'
p5622
(I00
S'1 1'
p5623
(I00
S'1 2'
p5624
(I00
S'0 1'
p5625
(I01
I0
tp5626
(I00
S'0 2'
p5627
(I01
I0
tp5628
(I01
I1
tp5629
tp5630
tp5631
(I00
S'0 2'
p5632
(I01
I2
tp5633
(I01
I1
tp5634
tp5635
tp5636
(I00
S'0 2'
p5637
(I00
S'0 2'
p5638
(I01
I1
tp5639
(I01
I0
tp5640
tp5641
(I01
I0
tp5642
tp5643
tp5644
(I00
S'1 1'
p5645
(I01
I1
tp5646
(I00
S'0 2'
p5647
(I00
S'1 2'
p5648
(I00
S'0 1'
p5649
(I01
I0
tp5650
(I00
S'1 1'
p5651
(I01
I1
tp5652
(I00
S'0 1'
p5653
(I01
I0
tp5654
(I01
I0
tp5655
tp5656
tp5657
tp5658
(I00
S'0 1'
p5659
(I00
S'0 2'
p5660
(I01
I2
tp5661
(I01
I2
tp5662
tp5663
(I00
S'0 1'
p5664
(I01
I2
tp5665
(I01
I2
tp5666
tp5667
tp5668
tp5669
(I01
I2
tp5670
tp5671
tp5672
tp5673
(I00
S'1 1'
p5674
(I00
S'0 2'
p5675
(I00
S'0 2'
p5676
(I00
S'0 1'
p5677
(I00
S'1 1'
p5678
(I00
S'1 1'
p5679
(I01
I1
tp5680
(I01
I1
tp5681
tp5682
(I01
I0
tp5683
tp5684
(I00
S'1 1'
p5685
(I00
S'0 2'
p5686
(I01
I0
tp5687
(I01
I1
tp5688
tp5689
(I01
I0
tp5690
tp5691
tp5692
(I00
S'0 1'
p5693
(I00
S'0 1'
p5694
(I01
I0
tp5695
(I01
I1
tp5696
tp5697
(I00
S'1 1'
p5698
(I01
I2
tp5699
(I01
I1
tp5700
tp5701
tp5702
tp5703
(I00
S'0 1'
p5704
(I01
I1
tp5705
(I00
S'0 2'
p5706
(I01
I2
tp5707
(I00
S'0 2'
p5708
(I00
S'1 2'
p5709
(I01
I1
tp5710
(I00
S'1 2'
p5711
(I01
I2
tp5712
(I01
I2
tp5713
tp5714
tp5715
(I00
S'1 2'
p5716
(I01
I0
tp5717
(I01
I0
tp5718
tp5719
tp5720
tp5721
tp5722
tp5723
(I00
S'0 2'
p5724
(I00
S'0 1'
p5725
(I01
I2
tp5726
(I00
S'1 1'
p5727
(I00
S'0 1'
p5728
(I00
S'1 2'
p5729
(I01
I0
tp5730
(I01
I0
tp5731
tp5732
(I00
S'1 1'
p5733
(I01
I0
tp5734
(I01
I1
tp5735
tp5736
tp5737
(I00
S'1 2'
p5738
(I00
S'1 1'
p5739
(I00
S'0 1'
p5740
(I01
I1
tp5741
(I01
I1
tp5742
tp5743
(I01
I1
tp5744
tp5745
(I00
S'0 1'
p5746
(I01
I1
tp5747
(I01
I1
tp5748
tp5749
tp5750
tp5751
tp5752
(I00
S'0 1'
p5753
(I00
S'0 2'
p5754
(I00
S'0 2'
p5755
(I00
S'1 1'
p5756
(I01
I0
tp5757
(I00
S'1 1'
p5758
(I01
I2
tp5759
(I01
I2
tp5760
tp5761
tp5762
(I00
S'1 2'
p5763
(I01
I1
tp5764
(I01
I0
tp5765
tp5766
tp5767
(I00
S'0 2'
p5768
(I01
I0
tp5769
(I00
S'1 1'
p5770
(I00
S'0 1'
p5771
(I01
I2
tp5772
(I01
I0
tp5773
tp5774
(I01
I1
tp5775
tp5776
tp5777
tp5778
(I00
S'1 1'
p5779
(I00
S'0 2'
p5780
(I01
I2
tp5781
(I01
I2
tp5782
tp5783
(I00
S'1 1'
p5784
(I00
S'1 2'
p5785
(I01
I1
tp5786
(I01
I1
tp5787
tp5788
(I00
S'0 1'
p5789
(I00
S'1 1'
p5790
(I01
I2
tp5791
(I01
I0
tp5792
tp5793
(I00
S'1 2'
p5794
(I01
I1
tp5795
(I01
I1
tp5796
tp5797
tp5798
tp5799
tp5800
tp5801
tp5802
tp5803
tp5804
tp5805
bag1
(tRp5806
(S'-12.5664 12.5664 -50 50 '
p5807
I2
F0.8500000238418579
F0.10000000149011612
F0.25
(I00
S'0 2'
p5808
(I00
S'0 1'
p5809
(I00
S'1 1'
p5810
(I00
S'1 2'
p5811
(I00
S'0 1'
p5812
(I01
I0
tp5813
(I00
S'0 2'
p5814
(I01
I0
tp5815
(I01
I1
tp5816
tp5817
tp5818
(I00
S'0 2'
p5819
(I01
I2
tp5820
(I01
I1
tp5821
tp5822
tp5823
(I00
S'0 2'
p5824
(I00
S'0 2'
p5825
(I01
I1
tp5826
(I01
I0
tp5827
tp5828
(I01
I0
tp5829
tp5830
tp5831
(I00
S'1 1'
p5832
(I01
I1
tp5833
(I00
S'0 2'
p5834
(I00
S'1 2'
p5835
(I00
S'0 1'
p5836
(I01
I0
tp5837
(I00
S'1 1'
p5838
(I01
I1
tp5839
(I00
S'0 1'
p5840
(I01
I0
tp5841
(I01
I0
tp5842
tp5843
tp5844
tp5845
(I00
S'0 1'
p5846
(I00
S'0 2'
p5847
(I01
I2
tp5848
(I01
I2
tp5849
tp5850
(I00
S'0 1'
p5851
(I01
I2
tp5852
(I01
I2
tp5853
tp5854
tp5855
tp5856
(I01
I2
tp5857
tp5858
tp5859
tp5860
(I00
S'1 1'
p5861
(I00
S'0 2'
p5862
(I00
S'0 2'
p5863
(I00
S'0 1'
p5864
(I00
S'1 1'
p5865
(I00
S'1 1'
p5866
(I01
I1
tp5867
(I01
I1
tp5868
tp5869
(I01
I0
tp5870
tp5871
(I00
S'1 1'
p5872
(I00
S'0 2'
p5873
(I01
I0
tp5874
(I01
I1
tp5875
tp5876
(I01
I0
tp5877
tp5878
tp5879
(I00
S'0 1'
p5880
(I00
S'0 1'
p5881
(I01
I0
tp5882
(I01
I1
tp5883
tp5884
(I00
S'1 1'
p5885
(I01
I2
tp5886
(I01
I1
tp5887
tp5888
tp5889
tp5890
(I00
S'0 1'
p5891
(I01
I1
tp5892
(I00
S'0 2'
p5893
(I01
I2
tp5894
(I00
S'0 2'
p5895
(I00
S'1 2'
p5896
(I01
I1
tp5897
(I00
S'1 2'
p5898
(I01
I2
tp5899
(I01
I2
tp5900
tp5901
tp5902
(I00
S'1 2'
p5903
(I01
I0
tp5904
(I01
I0
tp5905
tp5906
tp5907
tp5908
tp5909
tp5910
(I00
S'0 2'
p5911
(I00
S'0 1'
p5912
(I01
I2
tp5913
(I00
S'1 1'
p5914
(I00
S'0 1'
p5915
(I00
S'1 2'
p5916
(I01
I0
tp5917
(I01
I0
tp5918
tp5919
(I00
S'1 1'
p5920
(I01
I0
tp5921
(I01
I1
tp5922
tp5923
tp5924
(I00
S'1 2'
p5925
(I00
S'1 1'
p5926
(I01
I1
tp5927
(I01
I1
tp5928
tp5929
(I00
S'0 1'
p5930
(I01
I1
tp5931
(I01
I1
tp5932
tp5933
tp5934
tp5935
tp5936
(I00
S'0 1'
p5937
(I00
S'0 2'
p5938
(I00
S'0 2'
p5939
(I00
S'1 1'
p5940
(I01
I0
tp5941
(I00
S'1 1'
p5942
(I01
I2
tp5943
(I01
I2
tp5944
tp5945
tp5946
(I00
S'1 2'
p5947
(I01
I1
tp5948
(I00
S'1 2'
p5949
(I01
I0
tp5950
(I01
I0
tp5951
tp5952
tp5953
tp5954
(I00
S'0 2'
p5955
(I01
I0
tp5956
(I00
S'1 1'
p5957
(I00
S'0 1'
p5958
(I01
I2
tp5959
(I01
I0
tp5960
tp5961
(I01
I1
tp5962
tp5963
tp5964
tp5965
(I00
S'1 1'
p5966
(I00
S'0 2'
p5967
(I01
I2
tp5968
(I01
I2
tp5969
tp5970
(I00
S'1 1'
p5971
(I00
S'1 2'
p5972
(I01
I1
tp5973
(I01
I1
tp5974
tp5975
(I00
S'0 1'
p5976
(I00
S'1 1'
p5977
(I01
I2
tp5978
(I01
I0
tp5979
tp5980
(I00
S'1 2'
p5981
(I01
I1
tp5982
(I01
I1
tp5983
tp5984
tp5985
tp5986
tp5987
tp5988
tp5989
tp5990
tp5991
tp5992
bag1
(tRp5993
(S'-12.5664 12.5664 -50 50 '
p5994
I2
F0.8500000238418579
F0.10000000149011612
F0.25
(I00
S'0 2'
p5995
(I00
S'0 1'
p5996
(I00
S'1 1'
p5997
(I00
S'1 2'
p5998
(I00
S'0 1'
p5999
(I01
I0
tp6000
(I00
S'0 2'
p6001
(I01
I0
tp6002
(I01
I1
tp6003
tp6004
tp6005
(I00
S'0 2'
p6006
(I01
I2
tp6007
(I01
I1
tp6008
tp6009
tp6010
(I00
S'0 2'
p6011
(I00
S'0 2'
p6012
(I01
I1
tp6013
(I01
I0
tp6014
tp6015
(I01
I0
tp6016
tp6017
tp6018
(I00
S'1 1'
p6019
(I01
I1
tp6020
(I00
S'0 2'
p6021
(I00
S'1 2'
p6022
(I00
S'0 1'
p6023
(I01
I0
tp6024
(I00
S'1 1'
p6025
(I01
I1
tp6026
(I00
S'0 1'
p6027
(I01
I0
tp6028
(I01
I0
tp6029
tp6030
tp6031
tp6032
(I00
S'0 1'
p6033
(I00
S'0 2'
p6034
(I01
I2
tp6035
(I01
I2
tp6036
tp6037
(I00
S'0 1'
p6038
(I01
I2
tp6039
(I01
I2
tp6040
tp6041
tp6042
tp6043
(I01
I2
tp6044
tp6045
tp6046
tp6047
(I00
S'1 1'
p6048
(I00
S'0 2'
p6049
(I00
S'0 2'
p6050
(I00
S'0 1'
p6051
(I00
S'1 1'
p6052
(I00
S'1 1'
p6053
(I01
I1
tp6054
(I01
I1
tp6055
tp6056
(I01
I0
tp6057
tp6058
(I00
S'1 1'
p6059
(I00
S'0 2'
p6060
(I01
I0
tp6061
(I01
I1
tp6062
tp6063
(I01
I0
tp6064
tp6065
tp6066
(I00
S'0 1'
p6067
(I00
S'0 1'
p6068
(I01
I0
tp6069
(I01
I1
tp6070
tp6071
(I00
S'1 1'
p6072
(I01
I2
tp6073
(I01
I1
tp6074
tp6075
tp6076
tp6077
(I00
S'0 1'
p6078
(I01
I1
tp6079
(I00
S'0 2'
p6080
(I01
I2
tp6081
(I00
S'0 2'
p6082
(I00
S'1 2'
p6083
(I01
I1
tp6084
(I00
S'1 2'
p6085
(I01
I2
tp6086
(I01
I2
tp6087
tp6088
tp6089
(I00
S'1 2'
p6090
(I01
I0
tp6091
(I01
I0
tp6092
tp6093
tp6094
tp6095
tp6096
tp6097
(I00
S'0 2'
p6098
(I00
S'0 1'
p6099
(I01
I2
tp6100
(I00
S'1 1'
p6101
(I00
S'0 1'
p6102
(I00
S'1 2'
p6103
(I01
I0
tp6104
(I01
I0
tp6105
tp6106
(I00
S'1 1'
p6107
(I01
I0
tp6108
(I01
I1
tp6109
tp6110
tp6111
(I00
S'1 2'
p6112
(I00
S'1 1'
p6113
(I01
I1
tp6114
(I01
I1
tp6115
tp6116
(I00
S'0 1'
p6117
(I01
I1
tp6118
(I01
I1
tp6119
tp6120
tp6121
tp6122
tp6123
(I00
S'0 1'
p6124
(I00
S'0 2'
p6125
(I00
S'0 2'
p6126
(I00
S'1 1'
p6127
(I01
I0
tp6128
(I00
S'1 1'
p6129
(I01
I2
tp6130
(I01
I2
tp6131
tp6132
tp6133
(I00
S'1 2'
p6134
(I01
I1
tp6135
(I01
I0
tp6136
tp6137
tp6138
(I00
S'0 2'
p6139
(I01
I0
tp6140
(I00
S'1 1'
p6141
(I00
S'0 1'
p6142
(I01
I2
tp6143
(I01
I0
tp6144
tp6145
(I01
I1
tp6146
tp6147
tp6148
tp6149
(I00
S'1 1'
p6150
(I00
S'0 2'
p6151
(I01
I2
tp6152
(I01
I2
tp6153
tp6154
(I00
S'1 1'
p6155
(I00
S'1 2'
p6156
(I01
I1
tp6157
(I01
I1
tp6158
tp6159
(I00
S'0 1'
p6160
(I00
S'1 1'
p6161
(I01
I2
tp6162
(I01
I0
tp6163
tp6164
(I00
S'1 2'
p6165
(I01
I1
tp6166
(I01
I1
tp6167
tp6168
tp6169
tp6170
tp6171
tp6172
tp6173
tp6174
tp6175
tp6176
bag1
(tRp6177
(S'-12.5664 12.5664 -50 50 '
p6178
I2
F0.8500000238418579
F0.10000000149011612
F0.25
(I00
S'0 2'
p6179
(I00
S'0 1'
p6180
(I00
S'1 1'
p6181
(I00
S'1 2'
p6182
(I00
S'0 1'
p6183
(I01
I0
tp6184
(I00
S'0 2'
p6185
(I01
I0
tp6186
(I01
I1
tp6187
tp6188
tp6189
(I00
S'0 2'
p6190
(I01
I2
tp6191
(I01
I1
tp6192
tp6193
tp6194
(I00
S'0 2'
p6195
(I00
S'0 2'
p6196
(I01
I1
tp6197
(I01
I0
tp6198
tp6199
(I01
I1
tp6200
tp6201
tp6202
(I00
S'1 1'
p6203
(I01
I1
tp6204
(I00
S'0 2'
p6205
(I00
S'1 2'
p6206
(I00
S'0 1'
p6207
(I01
I0
tp6208
(I00
S'1 1'
p6209
(I01
I1
tp6210
(I00
S'0 1'
p6211
(I01
I0
tp6212
(I01
I0
tp6213
tp6214
tp6215
tp6216
(I00
S'0 1'
p6217
(I00
S'0 2'
p6218
(I01
I2
tp6219
(I01
I2
tp6220
tp6221
(I00
S'0 1'
p6222
(I01
I2
tp6223
(I01
I2
tp6224
tp6225
tp6226
tp6227
(I01
I2
tp6228
tp6229
tp6230
tp6231
(I00
S'1 1'
p6232
(I00
S'0 2'
p6233
(I00
S'0 2'
p6234
(I00
S'0 1'
p6235
(I00
S'1 1'
p6236
(I00
S'1 1'
p6237
(I01
I1
tp6238
(I01
I1
tp6239
tp6240
(I01
I0
tp6241
tp6242
(I00
S'1 1'
p6243
(I00
S'0 2'
p6244
(I01
I0
tp6245
(I01
I1
tp6246
tp6247
(I01
I0
tp6248
tp6249
tp6250
(I00
S'0 1'
p6251
(I00
S'0 1'
p6252
(I01
I0
tp6253
(I01
I1
tp6254
tp6255
(I00
S'1 1'
p6256
(I01
I2
tp6257
(I01
I1
tp6258
tp6259
tp6260
tp6261
(I00
S'0 1'
p6262
(I01
I1
tp6263
(I00
S'0 2'
p6264
(I01
I2
tp6265
(I00
S'0 2'
p6266
(I00
S'1 2'
p6267
(I01
I1
tp6268
(I00
S'1 2'
p6269
(I01
I2
tp6270
(I01
I2
tp6271
tp6272
tp6273
(I00
S'1 2'
p6274
(I01
I0
tp6275
(I01
I0
tp6276
tp6277
tp6278
tp6279
tp6280
tp6281
(I00
S'0 2'
p6282
(I00
S'0 1'
p6283
(I01
I2
tp6284
(I00
S'1 1'
p6285
(I00
S'0 1'
p6286
(I00
S'1 2'
p6287
(I01
I0
tp6288
(I01
I0
tp6289
tp6290
(I00
S'1 1'
p6291
(I01
I1
tp6292
(I01
I1
tp6293
tp6294
tp6295
(I00
S'1 2'
p6296
(I00
S'1 1'
p6297
(I01
I1
tp6298
(I01
I1
tp6299
tp6300
(I00
S'0 1'
p6301
(I01
I1
tp6302
(I01
I1
tp6303
tp6304
tp6305
tp6306
tp6307
(I00
S'0 1'
p6308
(I00
S'0 2'
p6309
(I00
S'0 2'
p6310
(I00
S'1 1'
p6311
(I01
I0
tp6312
(I00
S'1 1'
p6313
(I01
I2
tp6314
(I01
I2
tp6315
tp6316
tp6317
(I00
S'1 2'
p6318
(I01
I0
tp6319
(I01
I0
tp6320
tp6321
tp6322
(I00
S'0 2'
p6323
(I01
I0
tp6324
(I00
S'1 1'
p6325
(I00
S'0 1'
p6326
(I01
I2
tp6327
(I01
I0
tp6328
tp6329
(I01
I1
tp6330
tp6331
tp6332
tp6333
(I00
S'1 1'
p6334
(I00
S'0 2'
p6335
(I01
I2
tp6336
(I01
I2
tp6337
tp6338
(I00
S'1 1'
p6339
(I00
S'1 2'
p6340
(I01
I1
tp6341
(I01
I1
tp6342
tp6343
(I00
S'0 1'
p6344
(I00
S'1 1'
p6345
(I01
I2
tp6346
(I01
I0
tp6347
tp6348
(I00
S'1 2'
p6349
(I01
I1
tp6350
(I01
I1
tp6351
tp6352
tp6353
tp6354
tp6355
tp6356
tp6357
tp6358
tp6359
tp6360
bag1
(tRp6361
(S'-12.5664 12.5664 -50 50 '
p6362
I2
F0.8500000238418579
F0.10000000149011612
F0.25
(I00
S'0 2'
p6363
(I00
S'0 1'
p6364
(I00
S'1 1'
p6365
(I00
S'1 2'
p6366
(I00
S'0 1'
p6367
(I01
I0
tp6368
(I00
S'0 2'
p6369
(I01
I0
tp6370
(I01
I1
tp6371
tp6372
tp6373
(I00
S'0 2'
p6374
(I01
I2
tp6375
(I01
I1
tp6376
tp6377
tp6378
(I00
S'0 2'
p6379
(I00
S'0 2'
p6380
(I01
I1
tp6381
(I01
I0
tp6382
tp6383
(I01
I0
tp6384
tp6385
tp6386
(I00
S'1 1'
p6387
(I01
I1
tp6388
(I00
S'0 2'
p6389
(I00
S'1 2'
p6390
(I00
S'0 1'
p6391
(I01
I0
tp6392
(I00
S'1 1'
p6393
(I01
I1
tp6394
(I00
S'0 1'
p6395
(I01
I0
tp6396
(I01
I0
tp6397
tp6398
tp6399
tp6400
(I00
S'0 1'
p6401
(I00
S'0 2'
p6402
(I01
I2
tp6403
(I01
I2
tp6404
tp6405
(I00
S'0 1'
p6406
(I01
I2
tp6407
(I01
I2
tp6408
tp6409
tp6410
tp6411
(I01
I2
tp6412
tp6413
tp6414
tp6415
(I00
S'1 1'
p6416
(I00
S'0 2'
p6417
(I00
S'0 2'
p6418
(I00
S'0 1'
p6419
(I00
S'1 1'
p6420
(I00
S'1 1'
p6421
(I01
I1
tp6422
(I01
I1
tp6423
tp6424
(I01
I0
tp6425
tp6426
(I00
S'1 1'
p6427
(I00
S'0 2'
p6428
(I01
I0
tp6429
(I01
I1
tp6430
tp6431
(I01
I0
tp6432
tp6433
tp6434
(I00
S'0 1'
p6435
(I00
S'0 1'
p6436
(I01
I0
tp6437
(I01
I1
tp6438
tp6439
(I00
S'1 1'
p6440
(I01
I2
tp6441
(I01
I1
tp6442
tp6443
tp6444
tp6445
(I00
S'0 1'
p6446
(I01
I1
tp6447
(I00
S'0 2'
p6448
(I01
I2
tp6449
(I00
S'0 2'
p6450
(I00
S'1 2'
p6451
(I01
I1
tp6452
(I00
S'1 2'
p6453
(I01
I2
tp6454
(I01
I2
tp6455
tp6456
tp6457
(I00
S'1 2'
p6458
(I01
I0
tp6459
(I01
I0
tp6460
tp6461
tp6462
tp6463
tp6464
tp6465
(I00
S'0 2'
p6466
(I00
S'0 1'
p6467
(I01
I2
tp6468
(I00
S'1 1'
p6469
(I00
S'0 1'
p6470
(I00
S'1 2'
p6471
(I01
I0
tp6472
(I01
I0
tp6473
tp6474
(I00
S'1 1'
p6475
(I01
I1
tp6476
(I01
I1
tp6477
tp6478
tp6479
(I00
S'1 2'
p6480
(I00
S'1 1'
p6481
(I01
I1
tp6482
(I01
I1
tp6483
tp6484
(I00
S'0 1'
p6485
(I01
I1
tp6486
(I01
I1
tp6487
tp6488
tp6489
tp6490
tp6491
(I00
S'0 1'
p6492
(I00
S'0 2'
p6493
(I00
S'0 2'
p6494
(I00
S'1 1'
p6495
(I01
I0
tp6496
(I00
S'1 1'
p6497
(I01
I2
tp6498
(I01
I2
tp6499
tp6500
tp6501
(I00
S'1 2'
p6502
(I01
I0
tp6503
(I01
I0
tp6504
tp6505
tp6506
(I00
S'0 2'
p6507
(I01
I0
tp6508
(I00
S'1 1'
p6509
(I00
S'0 1'
p6510
(I01
I2
tp6511
(I01
I0
tp6512
tp6513
(I01
I1
tp6514
tp6515
tp6516
tp6517
(I00
S'1 1'
p6518
(I00
S'0 2'
p6519
(I01
I2
tp6520
(I01
I2
tp6521
tp6522
(I00
S'1 1'
p6523
(I00
S'1 2'
p6524
(I01
I1
tp6525
(I01
I1
tp6526
tp6527
(I00
S'0 1'
p6528
(I00
S'1 1'
p6529
(I01
I2
tp6530
(I01
I0
tp6531
tp6532
(I00
S'1 2'
p6533
(I01
I1
tp6534
(I01
I1
tp6535
tp6536
tp6537
tp6538
tp6539
tp6540
tp6541
tp6542
tp6543
tp6544
bag1
(tRp6545
(S'-12.5664 12.5664 -50 50 '
p6546
I2
F0.8500000238418579
F0.10000000149011612
F0.25
(I00
S'0 2'
p6547
(I00
S'0 1'
p6548
(I00
S'1 1'
p6549
(I00
S'1 2'
p6550
(I00
S'0 1'
p6551
(I01
I0
tp6552
(I00
S'0 2'
p6553
(I01
I0
tp6554
(I01
I1
tp6555
tp6556
tp6557
(I00
S'0 2'
p6558
(I01
I2
tp6559
(I01
I1
tp6560
tp6561
tp6562
(I00
S'0 2'
p6563
(I00
S'0 2'
p6564
(I01
I1
tp6565
(I01
I0
tp6566
tp6567
(I01
I0
tp6568
tp6569
tp6570
(I00
S'1 1'
p6571
(I01
I1
tp6572
(I00
S'0 2'
p6573
(I00
S'1 2'
p6574
(I00
S'0 1'
p6575
(I01
I0
tp6576
(I00
S'1 1'
p6577
(I01
I1
tp6578
(I00
S'0 1'
p6579
(I01
I0
tp6580
(I01
I0
tp6581
tp6582
tp6583
tp6584
(I00
S'0 1'
p6585
(I00
S'0 2'
p6586
(I01
I2
tp6587
(I01
I2
tp6588
tp6589
(I00
S'0 1'
p6590
(I01
I2
tp6591
(I01
I2
tp6592
tp6593
tp6594
tp6595
(I01
I2
tp6596
tp6597
tp6598
tp6599
(I00
S'1 1'
p6600
(I00
S'0 2'
p6601
(I00
S'0 2'
p6602
(I00
S'0 1'
p6603
(I00
S'1 1'
p6604
(I00
S'1 1'
p6605
(I01
I1
tp6606
(I01
I1
tp6607
tp6608
(I01
I0
tp6609
tp6610
(I00
S'1 1'
p6611
(I00
S'0 2'
p6612
(I01
I0
tp6613
(I01
I1
tp6614
tp6615
(I01
I0
tp6616
tp6617
tp6618
(I00
S'0 1'
p6619
(I00
S'0 1'
p6620
(I01
I0
tp6621
(I01
I1
tp6622
tp6623
(I00
S'1 1'
p6624
(I01
I2
tp6625
(I01
I1
tp6626
tp6627
tp6628
tp6629
(I00
S'0 1'
p6630
(I01
I1
tp6631
(I00
S'0 2'
p6632
(I01
I2
tp6633
(I00
S'0 2'
p6634
(I00
S'1 2'
p6635
(I01
I1
tp6636
(I00
S'1 2'
p6637
(I01
I2
tp6638
(I01
I2
tp6639
tp6640
tp6641
(I00
S'1 2'
p6642
(I01
I0
tp6643
(I01
I0
tp6644
tp6645
tp6646
tp6647
tp6648
tp6649
(I00
S'0 2'
p6650
(I00
S'0 1'
p6651
(I01
I2
tp6652
(I00
S'1 1'
p6653
(I00
S'0 1'
p6654
(I00
S'1 2'
p6655
(I01
I0
tp6656
(I01
I0
tp6657
tp6658
(I00
S'1 1'
p6659
(I01
I0
tp6660
(I01
I1
tp6661
tp6662
tp6663
(I00
S'1 2'
p6664
(I00
S'1 1'
p6665
(I01
I1
tp6666
(I01
I1
tp6667
tp6668
(I00
S'0 1'
p6669
(I01
I1
tp6670
(I01
I1
tp6671
tp6672
tp6673
tp6674
tp6675
(I00
S'0 1'
p6676
(I00
S'0 2'
p6677
(I00
S'0 2'
p6678
(I00
S'1 1'
p6679
(I01
I0
tp6680
(I00
S'1 1'
p6681
(I01
I2
tp6682
(I01
I2
tp6683
tp6684
tp6685
(I00
S'1 2'
p6686
(I01
I1
tp6687
(I01
I0
tp6688
tp6689
tp6690
(I00
S'0 2'
p6691
(I01
I0
tp6692
(I00
S'1 1'
p6693
(I00
S'0 1'
p6694
(I01
I2
tp6695
(I01
I0
tp6696
tp6697
(I01
I1
tp6698
tp6699
tp6700
tp6701
(I00
S'1 1'
p6702
(I00
S'0 2'
p6703
(I01
I2
tp6704
(I01
I2
tp6705
tp6706
(I00
S'1 1'
p6707
(I00
S'1 2'
p6708
(I01
I1
tp6709
(I01
I1
tp6710
tp6711
(I00
S'0 1'
p6712
(I00
S'1 1'
p6713
(I01
I2
tp6714
(I01
I0
tp6715
tp6716
(I00
S'1 2'
p6717
(I01
I1
tp6718
(I01
I1
tp6719
tp6720
tp6721
tp6722
tp6723
tp6724
tp6725
tp6726
tp6727
tp6728
bag1
(tRp6729
(S'-12.5664 12.5664 -50 50 '
p6730
I2
F0.8500000238418579
F0.10000000149011612
F0.25
(I00
S'0 2'
p6731
(I00
S'0 1'
p6732
(I00
S'1 1'
p6733
(I00
S'1 2'
p6734
(I00
S'0 1'
p6735
(I01
I0
tp6736
(I00
S'0 2'
p6737
(I01
I0
tp6738
(I01
I1
tp6739
tp6740
tp6741
(I00
S'0 2'
p6742
(I01
I2
tp6743
(I01
I1
tp6744
tp6745
tp6746
(I00
S'0 2'
p6747
(I00
S'0 2'
p6748
(I01
I1
tp6749
(I01
I0
tp6750
tp6751
(I01
I0
tp6752
tp6753
tp6754
(I00
S'1 1'
p6755
(I01
I1
tp6756
(I00
S'0 2'
p6757
(I00
S'1 2'
p6758
(I00
S'0 1'
p6759
(I01
I0
tp6760
(I00
S'1 1'
p6761
(I01
I1
tp6762
(I00
S'0 1'
p6763
(I01
I0
tp6764
(I01
I0
tp6765
tp6766
tp6767
tp6768
(I00
S'0 1'
p6769
(I00
S'0 2'
p6770
(I01
I2
tp6771
(I01
I2
tp6772
tp6773
(I00
S'0 1'
p6774
(I01
I2
tp6775
(I01
I2
tp6776
tp6777
tp6778
tp6779
(I01
I2
tp6780
tp6781
tp6782
tp6783
(I00
S'1 1'
p6784
(I00
S'0 2'
p6785
(I00
S'0 2'
p6786
(I00
S'0 1'
p6787
(I00
S'1 1'
p6788
(I00
S'1 1'
p6789
(I01
I1
tp6790
(I01
I1
tp6791
tp6792
(I01
I0
tp6793
tp6794
(I00
S'1 1'
p6795
(I00
S'0 2'
p6796
(I01
I0
tp6797
(I01
I1
tp6798
tp6799
(I01
I0
tp6800
tp6801
tp6802
(I00
S'0 1'
p6803
(I00
S'0 1'
p6804
(I01
I0
tp6805
(I01
I1
tp6806
tp6807
(I00
S'1 1'
p6808
(I01
I2
tp6809
(I01
I1
tp6810
tp6811
tp6812
tp6813
(I00
S'0 1'
p6814
(I01
I1
tp6815
(I00
S'0 2'
p6816
(I01
I2
tp6817
(I00
S'0 2'
p6818
(I00
S'1 2'
p6819
(I01
I1
tp6820
(I00
S'1 2'
p6821
(I01
I2
tp6822
(I01
I2
tp6823
tp6824
tp6825
(I00
S'1 2'
p6826
(I01
I0
tp6827
(I01
I0
tp6828
tp6829
tp6830
tp6831
tp6832
tp6833
(I00
S'0 2'
p6834
(I00
S'0 1'
p6835
(I01
I2
tp6836
(I00
S'1 1'
p6837
(I00
S'0 1'
p6838
(I00
S'1 2'
p6839
(I01
I0
tp6840
(I01
I0
tp6841
tp6842
(I00
S'1 1'
p6843
(I01
I0
tp6844
(I01
I1
tp6845
tp6846
tp6847
(I00
S'1 2'
p6848
(I00
S'1 1'
p6849
(I01
I1
tp6850
(I01
I1
tp6851
tp6852
(I00
S'0 1'
p6853
(I01
I1
tp6854
(I01
I1
tp6855
tp6856
tp6857
tp6858
tp6859
(I00
S'0 1'
p6860
(I00
S'0 2'
p6861
(I00
S'0 2'
p6862
(I00
S'1 1'
p6863
(I01
I0
tp6864
(I00
S'1 1'
p6865
(I01
I2
tp6866
(I01
I2
tp6867
tp6868
tp6869
(I00
S'1 2'
p6870
(I01
I1
tp6871
(I01
I0
tp6872
tp6873
tp6874
(I00
S'0 2'
p6875
(I01
I0
tp6876
(I00
S'1 1'
p6877
(I00
S'0 1'
p6878
(I01
I2
tp6879
(I01
I0
tp6880
tp6881
(I01
I1
tp6882
tp6883
tp6884
tp6885
(I00
S'1 1'
p6886
(I00
S'0 2'
p6887
(I01
I2
tp6888
(I01
I2
tp6889
tp6890
(I00
S'1 1'
p6891
(I00
S'1 2'
p6892
(I01
I1
tp6893
(I01
I1
tp6894
tp6895
(I00
S'0 1'
p6896
(I00
S'1 1'
p6897
(I01
I2
tp6898
(I01
I0
tp6899
tp6900
(I00
S'1 2'
p6901
(I01
I1
tp6902
(I01
I1
tp6903
tp6904
tp6905
tp6906
tp6907
tp6908
tp6909
tp6910
tp6911
tp6912
bag1
(tRp6913
(S'-12.5664 12.5664 -50 50 '
p6914
I2
F0.8500000238418579
F0.10000000149011612
F0.25
(I00
S'0 2'
p6915
(I00
S'0 1'
p6916
(I00
S'1 1'
p6917
(I00
S'1 2'
p6918
(I00
S'0 1'
p6919
(I01
I0
tp6920
(I00
S'0 2'
p6921
(I01
I0
tp6922
(I01
I1
tp6923
tp6924
tp6925
(I00
S'0 2'
p6926
(I01
I2
tp6927
(I01
I1
tp6928
tp6929
tp6930
(I00
S'0 2'
p6931
(I00
S'0 2'
p6932
(I01
I1
tp6933
(I01
I0
tp6934
tp6935
(I01
I0
tp6936
tp6937
tp6938
(I00
S'1 1'
p6939
(I01
I1
tp6940
(I00
S'0 2'
p6941
(I00
S'1 2'
p6942
(I00
S'0 1'
p6943
(I01
I0
tp6944
(I00
S'1 1'
p6945
(I01
I1
tp6946
(I00
S'0 1'
p6947
(I01
I0
tp6948
(I01
I0
tp6949
tp6950
tp6951
tp6952
(I00
S'0 1'
p6953
(I00
S'0 2'
p6954
(I01
I2
tp6955
(I01
I2
tp6956
tp6957
(I00
S'0 1'
p6958
(I01
I2
tp6959
(I01
I2
tp6960
tp6961
tp6962
tp6963
(I01
I2
tp6964
tp6965
tp6966
tp6967
(I00
S'1 1'
p6968
(I00
S'0 2'
p6969
(I00
S'0 2'
p6970
(I00
S'0 1'
p6971
(I00
S'1 1'
p6972
(I00
S'1 1'
p6973
(I01
I1
tp6974
(I01
I1
tp6975
tp6976
(I01
I0
tp6977
tp6978
(I00
S'1 1'
p6979
(I00
S'0 2'
p6980
(I01
I0
tp6981
(I01
I1
tp6982
tp6983
(I01
I0
tp6984
tp6985
tp6986
(I00
S'0 1'
p6987
(I00
S'0 1'
p6988
(I01
I0
tp6989
(I01
I1
tp6990
tp6991
(I00
S'1 1'
p6992
(I01
I2
tp6993
(I01
I1
tp6994
tp6995
tp6996
tp6997
(I00
S'0 1'
p6998
(I01
I1
tp6999
(I00
S'0 2'
p7000
(I01
I2
tp7001
(I00
S'0 2'
p7002
(I00
S'1 2'
p7003
(I01
I1
tp7004
(I00
S'1 2'
p7005
(I01
I2
tp7006
(I01
I2
tp7007
tp7008
tp7009
(I00
S'1 2'
p7010
(I01
I0
tp7011
(I01
I0
tp7012
tp7013
tp7014
tp7015
tp7016
tp7017
(I00
S'0 2'
p7018
(I00
S'0 1'
p7019
(I01
I2
tp7020
(I00
S'1 1'
p7021
(I00
S'0 1'
p7022
(I00
S'1 2'
p7023
(I01
I0
tp7024
(I01
I0
tp7025
tp7026
(I00
S'1 1'
p7027
(I01
I1
tp7028
(I01
I1
tp7029
tp7030
tp7031
(I00
S'1 2'
p7032
(I00
S'1 1'
p7033
(I01
I1
tp7034
(I01
I1
tp7035
tp7036
(I00
S'0 1'
p7037
(I01
I1
tp7038
(I01
I1
tp7039
tp7040
tp7041
tp7042
tp7043
(I00
S'0 1'
p7044
(I00
S'0 2'
p7045
(I00
S'0 2'
p7046
(I00
S'1 1'
p7047
(I01
I0
tp7048
(I00
S'1 1'
p7049
(I01
I2
tp7050
(I01
I2
tp7051
tp7052
tp7053
(I00
S'1 2'
p7054
(I01
I0
tp7055
(I01
I0
tp7056
tp7057
tp7058
(I00
S'0 2'
p7059
(I01
I0
tp7060
(I00
S'1 1'
p7061
(I00
S'0 1'
p7062
(I01
I2
tp7063
(I01
I0
tp7064
tp7065
(I00
S'0 2'
p7066
(I01
I1
tp7067
(I01
I1
tp7068
tp7069
tp7070
tp7071
tp7072
(I00
S'1 1'
p7073
(I00
S'0 2'
p7074
(I01
I2
tp7075
(I01
I2
tp7076
tp7077
(I00
S'1 1'
p7078
(I00
S'1 2'
p7079
(I01
I1
tp7080
(I01
I1
tp7081
tp7082
(I00
S'0 1'
p7083
(I00
S'1 1'
p7084
(I01
I2
tp7085
(I01
I0
tp7086
tp7087
(I00
S'1 2'
p7088
(I01
I1
tp7089
(I01
I1
tp7090
tp7091
tp7092
tp7093
tp7094
tp7095
tp7096
tp7097
tp7098
tp7099
bag1
(tRp7100
(S'-12.5664 12.5664 -50 50 '
p7101
I2
F0.8500000238418579
F0.10000000149011612
F0.25
(I00
S'0 2'
p7102
(I00
S'0 1'
p7103
(I00
S'1 1'
p7104
(I00
S'1 2'
p7105
(I00
S'0 1'
p7106
(I01
I0
tp7107
(I00
S'0 2'
p7108
(I01
I0
tp7109
(I01
I1
tp7110
tp7111
tp7112
(I00
S'0 2'
p7113
(I01
I2
tp7114
(I01
I1
tp7115
tp7116
tp7117
(I00
S'0 2'
p7118
(I00
S'0 2'
p7119
(I01
I1
tp7120
(I01
I0
tp7121
tp7122
(I01
I0
tp7123
tp7124
tp7125
(I00
S'1 1'
p7126
(I01
I1
tp7127
(I00
S'0 2'
p7128
(I00
S'1 2'
p7129
(I00
S'0 1'
p7130
(I01
I0
tp7131
(I00
S'1 1'
p7132
(I01
I1
tp7133
(I00
S'0 1'
p7134
(I01
I0
tp7135
(I01
I0
tp7136
tp7137
tp7138
tp7139
(I00
S'0 1'
p7140
(I00
S'0 2'
p7141
(I01
I2
tp7142
(I01
I2
tp7143
tp7144
(I00
S'0 1'
p7145
(I01
I2
tp7146
(I01
I2
tp7147
tp7148
tp7149
tp7150
(I01
I2
tp7151
tp7152
tp7153
tp7154
(I00
S'1 1'
p7155
(I00
S'0 2'
p7156
(I00
S'0 2'
p7157
(I00
S'0 1'
p7158
(I00
S'1 1'
p7159
(I00
S'1 1'
p7160
(I01
I1
tp7161
(I01
I1
tp7162
tp7163
(I01
I0
tp7164
tp7165
(I00
S'1 1'
p7166
(I00
S'0 2'
p7167
(I01
I0
tp7168
(I01
I1
tp7169
tp7170
(I01
I0
tp7171
tp7172
tp7173
(I00
S'0 1'
p7174
(I00
S'0 1'
p7175
(I01
I0
tp7176
(I01
I1
tp7177
tp7178
(I00
S'1 1'
p7179
(I01
I2
tp7180
(I01
I1
tp7181
tp7182
tp7183
tp7184
(I00
S'0 1'
p7185
(I01
I1
tp7186
(I00
S'0 2'
p7187
(I01
I2
tp7188
(I00
S'0 2'
p7189
(I00
S'1 2'
p7190
(I01
I1
tp7191
(I00
S'1 2'
p7192
(I01
I2
tp7193
(I01
I2
tp7194
tp7195
tp7196
(I00
S'1 2'
p7197
(I01
I0
tp7198
(I01
I0
tp7199
tp7200
tp7201
tp7202
tp7203
tp7204
(I00
S'0 2'
p7205
(I00
S'0 1'
p7206
(I01
I2
tp7207
(I00
S'1 1'
p7208
(I00
S'0 1'
p7209
(I00
S'1 2'
p7210
(I01
I0
tp7211
(I01
I0
tp7212
tp7213
(I00
S'1 1'
p7214
(I01
I1
tp7215
(I01
I1
tp7216
tp7217
tp7218
(I00
S'1 2'
p7219
(I00
S'1 1'
p7220
(I01
I1
tp7221
(I01
I1
tp7222
tp7223
(I00
S'0 1'
p7224
(I01
I1
tp7225
(I01
I1
tp7226
tp7227
tp7228
tp7229
tp7230
(I00
S'0 1'
p7231
(I00
S'0 2'
p7232
(I00
S'0 2'
p7233
(I00
S'1 1'
p7234
(I01
I0
tp7235
(I00
S'1 1'
p7236
(I00
S'1 1'
p7237
(I01
I2
tp7238
(I01
I2
tp7239
tp7240
(I01
I2
tp7241
tp7242
tp7243
(I00
S'1 2'
p7244
(I01
I0
tp7245
(I01
I0
tp7246
tp7247
tp7248
(I00
S'0 2'
p7249
(I01
I0
tp7250
(I00
S'1 1'
p7251
(I00
S'0 1'
p7252
(I01
I2
tp7253
(I01
I0
tp7254
tp7255
(I01
I1
tp7256
tp7257
tp7258
tp7259
(I00
S'1 1'
p7260
(I00
S'0 2'
p7261
(I01
I2
tp7262
(I01
I2
tp7263
tp7264
(I00
S'1 1'
p7265
(I00
S'1 2'
p7266
(I01
I1
tp7267
(I01
I1
tp7268
tp7269
(I00
S'0 1'
p7270
(I00
S'1 1'
p7271
(I01
I2
tp7272
(I01
I0
tp7273
tp7274
(I00
S'1 2'
p7275
(I01
I1
tp7276
(I01
I1
tp7277
tp7278
tp7279
tp7280
tp7281
tp7282
tp7283
tp7284
tp7285
tp7286
bag1
(tRp7287
(S'-12.5664 12.5664 -50 50 '
p7288
I2
F0.8500000238418579
F0.10000000149011612
F0.25
(I00
S'0 2'
p7289
(I00
S'0 1'
p7290
(I00
S'1 1'
p7291
(I00
S'1 2'
p7292
(I00
S'0 1'
p7293
(I01
I0
tp7294
(I00
S'0 2'
p7295
(I01
I0
tp7296
(I01
I1
tp7297
tp7298
tp7299
(I00
S'0 2'
p7300
(I01
I2
tp7301
(I01
I1
tp7302
tp7303
tp7304
(I00
S'0 2'
p7305
(I00
S'0 2'
p7306
(I01
I1
tp7307
(I01
I0
tp7308
tp7309
(I01
I0
tp7310
tp7311
tp7312
(I00
S'1 1'
p7313
(I01
I1
tp7314
(I00
S'0 2'
p7315
(I00
S'1 2'
p7316
(I00
S'0 1'
p7317
(I01
I0
tp7318
(I00
S'1 1'
p7319
(I01
I1
tp7320
(I00
S'0 1'
p7321
(I01
I0
tp7322
(I01
I0
tp7323
tp7324
tp7325
tp7326
(I00
S'0 1'
p7327
(I00
S'0 2'
p7328
(I01
I2
tp7329
(I01
I2
tp7330
tp7331
(I00
S'0 1'
p7332
(I01
I2
tp7333
(I01
I2
tp7334
tp7335
tp7336
tp7337
(I01
I2
tp7338
tp7339
tp7340
tp7341
(I00
S'1 1'
p7342
(I00
S'0 2'
p7343
(I00
S'0 2'
p7344
(I00
S'0 1'
p7345
(I00
S'1 1'
p7346
(I00
S'1 1'
p7347
(I01
I1
tp7348
(I01
I1
tp7349
tp7350
(I01
I0
tp7351
tp7352
(I00
S'1 1'
p7353
(I00
S'0 2'
p7354
(I01
I0
tp7355
(I01
I1
tp7356
tp7357
(I01
I0
tp7358
tp7359
tp7360
(I00
S'0 1'
p7361
(I00
S'0 1'
p7362
(I01
I0
tp7363
(I01
I1
tp7364
tp7365
(I00
S'1 1'
p7366
(I01
I2
tp7367
(I01
I1
tp7368
tp7369
tp7370
tp7371
(I00
S'0 1'
p7372
(I01
I1
tp7373
(I00
S'0 2'
p7374
(I01
I2
tp7375
(I00
S'0 2'
p7376
(I00
S'1 2'
p7377
(I01
I1
tp7378
(I00
S'1 2'
p7379
(I01
I2
tp7380
(I01
I2
tp7381
tp7382
tp7383
(I00
S'1 2'
p7384
(I01
I0
tp7385
(I01
I0
tp7386
tp7387
tp7388
tp7389
tp7390
tp7391
(I00
S'0 2'
p7392
(I00
S'0 1'
p7393
(I01
I2
tp7394
(I00
S'1 1'
p7395
(I00
S'0 1'
p7396
(I00
S'1 2'
p7397
(I01
I0
tp7398
(I01
I0
tp7399
tp7400
(I00
S'1 1'
p7401
(I01
I0
tp7402
(I01
I1
tp7403
tp7404
tp7405
(I00
S'1 2'
p7406
(I00
S'1 1'
p7407
(I01
I1
tp7408
(I01
I1
tp7409
tp7410
(I00
S'0 1'
p7411
(I01
I1
tp7412
(I01
I1
tp7413
tp7414
tp7415
tp7416
tp7417
(I00
S'0 1'
p7418
(I00
S'0 2'
p7419
(I00
S'0 2'
p7420
(I00
S'1 1'
p7421
(I01
I0
tp7422
(I00
S'1 1'
p7423
(I01
I2
tp7424
(I01
I2
tp7425
tp7426
tp7427
(I00
S'1 2'
p7428
(I01
I1
tp7429
(I01
I0
tp7430
tp7431
tp7432
(I00
S'0 2'
p7433
(I01
I0
tp7434
(I00
S'1 1'
p7435
(I00
S'0 1'
p7436
(I01
I2
tp7437
(I01
I0
tp7438
tp7439
(I01
I1
tp7440
tp7441
tp7442
tp7443
(I00
S'1 1'
p7444
(I00
S'0 2'
p7445
(I01
I2
tp7446
(I01
I2
tp7447
tp7448
(I00
S'1 1'
p7449
(I00
S'1 2'
p7450
(I01
I1
tp7451
(I01
I1
tp7452
tp7453
(I00
S'0 1'
p7454
(I00
S'1 1'
p7455
(I01
I2
tp7456
(I01
I0
tp7457
tp7458
(I00
S'1 2'
p7459
(I01
I1
tp7460
(I01
I1
tp7461
tp7462
tp7463
tp7464
tp7465
tp7466
tp7467
tp7468
tp7469
tp7470
bag1
(tRp7471
(S'-12.5664 12.5664 -50 50 '
p7472
I2
F0.8500000238418579
F0.10000000149011612
F0.25
(I00
S'0 2'
p7473
(I00
S'0 1'
p7474
(I00
S'1 1'
p7475
(I00
S'1 2'
p7476
(I00
S'0 1'
p7477
(I01
I0
tp7478
(I00
S'0 2'
p7479
(I01
I0
tp7480
(I01
I1
tp7481
tp7482
tp7483
(I00
S'0 2'
p7484
(I01
I2
tp7485
(I01
I1
tp7486
tp7487
tp7488
(I00
S'0 2'
p7489
(I00
S'0 2'
p7490
(I01
I1
tp7491
(I01
I0
tp7492
tp7493
(I01
I0
tp7494
tp7495
tp7496
(I00
S'1 1'
p7497
(I01
I1
tp7498
(I00
S'0 2'
p7499
(I00
S'1 2'
p7500
(I00
S'0 1'
p7501
(I01
I0
tp7502
(I00
S'1 1'
p7503
(I01
I1
tp7504
(I00
S'0 1'
p7505
(I01
I2
tp7506
(I01
I0
tp7507
tp7508
tp7509
tp7510
(I00
S'0 1'
p7511
(I00
S'0 2'
p7512
(I01
I2
tp7513
(I01
I2
tp7514
tp7515
(I00
S'0 1'
p7516
(I01
I2
tp7517
(I01
I2
tp7518
tp7519
tp7520
tp7521
(I01
I2
tp7522
tp7523
tp7524
tp7525
(I00
S'1 1'
p7526
(I00
S'0 2'
p7527
(I00
S'0 2'
p7528
(I00
S'0 1'
p7529
(I00
S'1 1'
p7530
(I00
S'1 1'
p7531
(I01
I1
tp7532
(I01
I1
tp7533
tp7534
(I01
I0
tp7535
tp7536
(I00
S'1 1'
p7537
(I00
S'0 2'
p7538
(I01
I0
tp7539
(I01
I1
tp7540
tp7541
(I01
I0
tp7542
tp7543
tp7544
(I00
S'0 1'
p7545
(I00
S'0 1'
p7546
(I01
I0
tp7547
(I01
I1
tp7548
tp7549
(I00
S'1 1'
p7550
(I01
I2
tp7551
(I01
I1
tp7552
tp7553
tp7554
tp7555
(I00
S'0 1'
p7556
(I01
I1
tp7557
(I00
S'0 2'
p7558
(I01
I2
tp7559
(I00
S'0 2'
p7560
(I00
S'1 2'
p7561
(I01
I1
tp7562
(I00
S'1 2'
p7563
(I01
I2
tp7564
(I01
I2
tp7565
tp7566
tp7567
(I00
S'1 2'
p7568
(I01
I0
tp7569
(I01
I0
tp7570
tp7571
tp7572
tp7573
tp7574
tp7575
(I00
S'0 2'
p7576
(I00
S'0 1'
p7577
(I01
I2
tp7578
(I00
S'1 1'
p7579
(I00
S'0 1'
p7580
(I00
S'1 2'
p7581
(I01
I0
tp7582
(I01
I0
tp7583
tp7584
(I00
S'1 1'
p7585
(I01
I0
tp7586
(I01
I1
tp7587
tp7588
tp7589
(I00
S'1 2'
p7590
(I00
S'1 1'
p7591
(I01
I1
tp7592
(I01
I1
tp7593
tp7594
(I00
S'0 1'
p7595
(I01
I1
tp7596
(I01
I1
tp7597
tp7598
tp7599
tp7600
tp7601
(I00
S'0 1'
p7602
(I00
S'0 2'
p7603
(I00
S'0 2'
p7604
(I00
S'1 1'
p7605
(I01
I0
tp7606
(I00
S'1 1'
p7607
(I01
I2
tp7608
(I01
I2
tp7609
tp7610
tp7611
(I00
S'1 2'
p7612
(I01
I1
tp7613
(I01
I0
tp7614
tp7615
tp7616
(I00
S'0 2'
p7617
(I01
I0
tp7618
(I00
S'1 1'
p7619
(I00
S'0 1'
p7620
(I01
I2
tp7621
(I01
I0
tp7622
tp7623
(I01
I1
tp7624
tp7625
tp7626
tp7627
(I00
S'1 1'
p7628
(I00
S'0 2'
p7629
(I01
I2
tp7630
(I01
I2
tp7631
tp7632
(I00
S'1 1'
p7633
(I00
S'1 2'
p7634
(I01
I1
tp7635
(I01
I1
tp7636
tp7637
(I00
S'0 1'
p7638
(I00
S'1 1'
p7639
(I01
I2
tp7640
(I01
I0
tp7641
tp7642
(I00
S'1 2'
p7643
(I01
I1
tp7644
(I01
I1
tp7645
tp7646
tp7647
tp7648
tp7649
tp7650
tp7651
tp7652
tp7653
tp7654
bag1
(tRp7655
(S'-12.5664 12.5664 -50 50 '
p7656
I2
F0.8500000238418579
F0.10000000149011612
F0.25
(I00
S'0 2'
p7657
(I00
S'0 1'
p7658
(I00
S'1 1'
p7659
(I00
S'1 2'
p7660
(I00
S'0 1'
p7661
(I01
I0
tp7662
(I00
S'0 2'
p7663
(I01
I0
tp7664
(I01
I1
tp7665
tp7666
tp7667
(I00
S'0 2'
p7668
(I01
I2
tp7669
(I01
I1
tp7670
tp7671
tp7672
(I00
S'0 2'
p7673
(I00
S'0 2'
p7674
(I01
I1
tp7675
(I01
I0
tp7676
tp7677
(I01
I0
tp7678
tp7679
tp7680
(I00
S'1 1'
p7681
(I01
I1
tp7682
(I00
S'0 2'
p7683
(I00
S'1 2'
p7684
(I00
S'0 1'
p7685
(I01
I0
tp7686
(I00
S'1 1'
p7687
(I01
I1
tp7688
(I00
S'0 1'
p7689
(I01
I0
tp7690
(I01
I0
tp7691
tp7692
tp7693
tp7694
(I00
S'0 1'
p7695
(I00
S'0 2'
p7696
(I01
I2
tp7697
(I01
I2
tp7698
tp7699
(I00
S'0 1'
p7700
(I01
I2
tp7701
(I01
I2
tp7702
tp7703
tp7704
tp7705
(I01
I2
tp7706
tp7707
tp7708
tp7709
(I00
S'1 1'
p7710
(I00
S'0 2'
p7711
(I00
S'0 2'
p7712
(I00
S'0 1'
p7713
(I00
S'1 1'
p7714
(I00
S'1 1'
p7715
(I01
I1
tp7716
(I01
I1
tp7717
tp7718
(I01
I0
tp7719
tp7720
(I00
S'1 1'
p7721
(I00
S'0 2'
p7722
(I01
I0
tp7723
(I01
I1
tp7724
tp7725
(I01
I0
tp7726
tp7727
tp7728
(I00
S'0 1'
p7729
(I00
S'0 1'
p7730
(I01
I0
tp7731
(I01
I1
tp7732
tp7733
(I00
S'1 1'
p7734
(I01
I2
tp7735
(I01
I1
tp7736
tp7737
tp7738
tp7739
(I00
S'0 1'
p7740
(I01
I1
tp7741
(I00
S'0 2'
p7742
(I01
I2
tp7743
(I00
S'0 2'
p7744
(I00
S'1 2'
p7745
(I01
I1
tp7746
(I00
S'1 2'
p7747
(I01
I2
tp7748
(I01
I2
tp7749
tp7750
tp7751
(I00
S'1 2'
p7752
(I01
I0
tp7753
(I01
I0
tp7754
tp7755
tp7756
tp7757
tp7758
tp7759
(I00
S'0 2'
p7760
(I00
S'0 1'
p7761
(I01
I0
tp7762
(I00
S'1 1'
p7763
(I00
S'0 1'
p7764
(I00
S'1 2'
p7765
(I01
I0
tp7766
(I01
I0
tp7767
tp7768
(I00
S'1 1'
p7769
(I01
I0
tp7770
(I01
I1
tp7771
tp7772
tp7773
(I00
S'1 2'
p7774
(I00
S'1 1'
p7775
(I01
I1
tp7776
(I01
I1
tp7777
tp7778
(I00
S'0 1'
p7779
(I01
I1
tp7780
(I01
I1
tp7781
tp7782
tp7783
tp7784
tp7785
(I00
S'0 1'
p7786
(I00
S'0 2'
p7787
(I00
S'0 2'
p7788
(I00
S'1 1'
p7789
(I01
I0
tp7790
(I00
S'1 1'
p7791
(I01
I2
tp7792
(I01
I2
tp7793
tp7794
tp7795
(I00
S'1 2'
p7796
(I01
I1
tp7797
(I01
I0
tp7798
tp7799
tp7800
(I00
S'0 2'
p7801
(I01
I0
tp7802
(I00
S'1 1'
p7803
(I00
S'0 1'
p7804
(I01
I2
tp7805
(I01
I0
tp7806
tp7807
(I01
I1
tp7808
tp7809
tp7810
tp7811
(I00
S'1 1'
p7812
(I00
S'0 2'
p7813
(I01
I2
tp7814
(I01
I2
tp7815
tp7816
(I00
S'1 1'
p7817
(I00
S'1 2'
p7818
(I01
I1
tp7819
(I01
I1
tp7820
tp7821
(I00
S'0 1'
p7822
(I00
S'1 1'
p7823
(I01
I2
tp7824
(I01
I0
tp7825
tp7826
(I00
S'1 2'
p7827
(I01
I1
tp7828
(I01
I1
tp7829
tp7830
tp7831
tp7832
tp7833
tp7834
tp7835
tp7836
tp7837
tp7838
bag1
(tRp7839
(S'-12.5664 12.5664 -50 50 '
p7840
I2
F0.8500000238418579
F0.10000000149011612
F0.25
(I00
S'0 2'
p7841
(I00
S'0 1'
p7842
(I00
S'1 1'
p7843
(I00
S'1 2'
p7844
(I00
S'0 1'
p7845
(I01
I0
tp7846
(I00
S'0 2'
p7847
(I01
I0
tp7848
(I01
I1
tp7849
tp7850
tp7851
(I00
S'0 2'
p7852
(I01
I2
tp7853
(I01
I1
tp7854
tp7855
tp7856
(I00
S'0 2'
p7857
(I00
S'0 2'
p7858
(I01
I1
tp7859
(I01
I0
tp7860
tp7861
(I01
I0
tp7862
tp7863
tp7864
(I00
S'1 1'
p7865
(I01
I1
tp7866
(I00
S'0 2'
p7867
(I00
S'1 2'
p7868
(I00
S'0 1'
p7869
(I01
I0
tp7870
(I00
S'1 1'
p7871
(I01
I1
tp7872
(I00
S'0 1'
p7873
(I01
I0
tp7874
(I01
I0
tp7875
tp7876
tp7877
tp7878
(I00
S'0 1'
p7879
(I00
S'0 2'
p7880
(I01
I2
tp7881
(I01
I2
tp7882
tp7883
(I00
S'0 1'
p7884
(I01
I2
tp7885
(I01
I2
tp7886
tp7887
tp7888
tp7889
(I01
I2
tp7890
tp7891
tp7892
tp7893
(I00
S'1 1'
p7894
(I00
S'0 2'
p7895
(I00
S'0 2'
p7896
(I00
S'0 1'
p7897
(I00
S'1 1'
p7898
(I00
S'1 1'
p7899
(I01
I1
tp7900
(I01
I1
tp7901
tp7902
(I01
I0
tp7903
tp7904
(I00
S'1 1'
p7905
(I00
S'0 2'
p7906
(I01
I0
tp7907
(I01
I1
tp7908
tp7909
(I01
I0
tp7910
tp7911
tp7912
(I00
S'0 1'
p7913
(I00
S'0 1'
p7914
(I01
I0
tp7915
(I01
I1
tp7916
tp7917
(I00
S'1 1'
p7918
(I01
I2
tp7919
(I01
I1
tp7920
tp7921
tp7922
tp7923
(I00
S'0 1'
p7924
(I01
I1
tp7925
(I00
S'0 2'
p7926
(I01
I2
tp7927
(I00
S'0 2'
p7928
(I00
S'1 2'
p7929
(I01
I1
tp7930
(I00
S'1 2'
p7931
(I01
I2
tp7932
(I01
I2
tp7933
tp7934
tp7935
(I00
S'1 2'
p7936
(I01
I0
tp7937
(I01
I0
tp7938
tp7939
tp7940
tp7941
tp7942
tp7943
(I00
S'0 2'
p7944
(I00
S'0 1'
p7945
(I01
I2
tp7946
(I00
S'1 1'
p7947
(I00
S'0 1'
p7948
(I00
S'1 2'
p7949
(I01
I0
tp7950
(I01
I0
tp7951
tp7952
(I00
S'1 1'
p7953
(I01
I0
tp7954
(I01
I1
tp7955
tp7956
tp7957
(I00
S'1 2'
p7958
(I00
S'1 1'
p7959
(I01
I1
tp7960
(I01
I1
tp7961
tp7962
(I00
S'0 1'
p7963
(I01
I1
tp7964
(I01
I1
tp7965
tp7966
tp7967
tp7968
tp7969
(I00
S'0 1'
p7970
(I00
S'0 2'
p7971
(I00
S'0 2'
p7972
(I00
S'1 1'
p7973
(I01
I0
tp7974
(I00
S'1 1'
p7975
(I01
I2
tp7976
(I01
I2
tp7977
tp7978
tp7979
(I00
S'1 2'
p7980
(I01
I1
tp7981
(I01
I0
tp7982
tp7983
tp7984
(I00
S'0 2'
p7985
(I01
I0
tp7986
(I00
S'1 1'
p7987
(I00
S'0 1'
p7988
(I01
I2
tp7989
(I01
I0
tp7990
tp7991
(I01
I1
tp7992
tp7993
tp7994
tp7995
(I00
S'1 1'
p7996
(I00
S'0 2'
p7997
(I01
I2
tp7998
(I01
I2
tp7999
tp8000
(I00
S'1 1'
p8001
(I00
S'1 2'
p8002
(I01
I1
tp8003
(I01
I1
tp8004
tp8005
(I00
S'0 1'
p8006
(I00
S'1 1'
p8007
(I01
I2
tp8008
(I01
I0
tp8009
tp8010
(I00
S'1 2'
p8011
(I01
I1
tp8012
(I01
I1
tp8013
tp8014
tp8015
tp8016
tp8017
tp8018
tp8019
tp8020
tp8021
tp8022
bag1
(tRp8023
(S'-12.5664 12.5664 -50 50 '
p8024
I2
F0.8500000238418579
F0.10000000149011612
F0.25
(I00
S'0 2'
p8025
(I00
S'0 1'
p8026
(I00
S'1 1'
p8027
(I00
S'1 2'
p8028
(I00
S'0 1'
p8029
(I01
I0
tp8030
(I00
S'0 2'
p8031
(I01
I0
tp8032
(I01
I1
tp8033
tp8034
tp8035
(I00
S'0 2'
p8036
(I01
I2
tp8037
(I01
I1
tp8038
tp8039
tp8040
(I00
S'0 2'
p8041
(I00
S'0 2'
p8042
(I01
I1
tp8043
(I01
I0
tp8044
tp8045
(I01
I0
tp8046
tp8047
tp8048
(I00
S'1 1'
p8049
(I01
I1
tp8050
(I00
S'0 2'
p8051
(I00
S'1 2'
p8052
(I00
S'0 1'
p8053
(I01
I0
tp8054
(I00
S'0 1'
p8055
(I01
I1
tp8056
(I00
S'0 1'
p8057
(I01
I0
tp8058
(I01
I0
tp8059
tp8060
tp8061
tp8062
(I00
S'0 1'
p8063
(I00
S'0 2'
p8064
(I01
I2
tp8065
(I01
I2
tp8066
tp8067
(I00
S'0 1'
p8068
(I01
I2
tp8069
(I01
I2
tp8070
tp8071
tp8072
tp8073
(I01
I2
tp8074
tp8075
tp8076
tp8077
(I00
S'1 1'
p8078
(I00
S'0 2'
p8079
(I00
S'0 2'
p8080
(I00
S'0 1'
p8081
(I00
S'1 1'
p8082
(I00
S'1 1'
p8083
(I01
I1
tp8084
(I01
I1
tp8085
tp8086
(I01
I0
tp8087
tp8088
(I00
S'1 1'
p8089
(I00
S'0 2'
p8090
(I01
I0
tp8091
(I01
I1
tp8092
tp8093
(I01
I0
tp8094
tp8095
tp8096
(I00
S'0 1'
p8097
(I00
S'0 1'
p8098
(I01
I0
tp8099
(I01
I1
tp8100
tp8101
(I00
S'1 1'
p8102
(I01
I2
tp8103
(I01
I1
tp8104
tp8105
tp8106
tp8107
(I00
S'0 1'
p8108
(I01
I1
tp8109
(I00
S'0 2'
p8110
(I01
I2
tp8111
(I00
S'0 2'
p8112
(I00
S'1 2'
p8113
(I01
I1
tp8114
(I00
S'1 2'
p8115
(I01
I2
tp8116
(I01
I2
tp8117
tp8118
tp8119
(I00
S'1 2'
p8120
(I01
I0
tp8121
(I01
I0
tp8122
tp8123
tp8124
tp8125
tp8126
tp8127
(I00
S'0 2'
p8128
(I00
S'0 1'
p8129
(I01
I2
tp8130
(I00
S'1 1'
p8131
(I00
S'0 1'
p8132
(I00
S'1 2'
p8133
(I01
I0
tp8134
(I01
I0
tp8135
tp8136
(I00
S'1 1'
p8137
(I01
I0
tp8138
(I01
I1
tp8139
tp8140
tp8141
(I00
S'1 2'
p8142
(I00
S'1 1'
p8143
(I01
I1
tp8144
(I01
I1
tp8145
tp8146
(I00
S'0 1'
p8147
(I01
I1
tp8148
(I01
I1
tp8149
tp8150
tp8151
tp8152
tp8153
(I00
S'0 1'
p8154
(I00
S'0 2'
p8155
(I00
S'0 2'
p8156
(I00
S'1 1'
p8157
(I01
I0
tp8158
(I00
S'1 1'
p8159
(I01
I2
tp8160
(I01
I2
tp8161
tp8162
tp8163
(I00
S'1 2'
p8164
(I01
I1
tp8165
(I01
I0
tp8166
tp8167
tp8168
(I00
S'0 2'
p8169
(I01
I0
tp8170
(I00
S'1 1'
p8171
(I00
S'0 1'
p8172
(I01
I2
tp8173
(I01
I0
tp8174
tp8175
(I01
I1
tp8176
tp8177
tp8178
tp8179
(I00
S'1 1'
p8180
(I00
S'0 2'
p8181
(I01
I2
tp8182
(I01
I2
tp8183
tp8184
(I00
S'1 1'
p8185
(I00
S'1 2'
p8186
(I01
I1
tp8187
(I01
I1
tp8188
tp8189
(I00
S'0 1'
p8190
(I00
S'1 1'
p8191
(I01
I2
tp8192
(I01
I0
tp8193
tp8194
(I00
S'1 2'
p8195
(I01
I1
tp8196
(I01
I1
tp8197
tp8198
tp8199
tp8200
tp8201
tp8202
tp8203
tp8204
tp8205
tp8206
bag1
(tRp8207
(S'-12.5664 12.5664 -50 50 '
p8208
I2
F0.8500000238418579
F0.10000000149011612
F0.25
(I00
S'0 2'
p8209
(I00
S'0 1'
p8210
(I00
S'1 1'
p8211
(I00
S'1 2'
p8212
(I00
S'0 1'
p8213
(I01
I0
tp8214
(I00
S'0 2'
p8215
(I01
I0
tp8216
(I01
I1
tp8217
tp8218
tp8219
(I00
S'0 2'
p8220
(I01
I2
tp8221
(I01
I1
tp8222
tp8223
tp8224
(I00
S'0 2'
p8225
(I00
S'0 2'
p8226
(I01
I1
tp8227
(I01
I0
tp8228
tp8229
(I01
I0
tp8230
tp8231
tp8232
(I00
S'1 1'
p8233
(I01
I1
tp8234
(I00
S'0 2'
p8235
(I00
S'1 2'
p8236
(I00
S'0 1'
p8237
(I01
I0
tp8238
(I00
S'1 1'
p8239
(I01
I1
tp8240
(I00
S'0 1'
p8241
(I01
I0
tp8242
(I01
I0
tp8243
tp8244
tp8245
tp8246
(I00
S'0 1'
p8247
(I00
S'0 2'
p8248
(I01
I2
tp8249
(I01
I2
tp8250
tp8251
(I00
S'0 1'
p8252
(I01
I2
tp8253
(I01
I2
tp8254
tp8255
tp8256
tp8257
(I01
I2
tp8258
tp8259
tp8260
tp8261
(I00
S'1 1'
p8262
(I00
S'0 2'
p8263
(I00
S'0 2'
p8264
(I00
S'0 1'
p8265
(I00
S'1 1'
p8266
(I00
S'1 1'
p8267
(I01
I1
tp8268
(I01
I1
tp8269
tp8270
(I01
I0
tp8271
tp8272
(I00
S'1 1'
p8273
(I00
S'0 2'
p8274
(I01
I0
tp8275
(I01
I1
tp8276
tp8277
(I01
I0
tp8278
tp8279
tp8280
(I00
S'0 1'
p8281
(I00
S'0 1'
p8282
(I01
I0
tp8283
(I01
I1
tp8284
tp8285
(I00
S'1 1'
p8286
(I01
I2
tp8287
(I01
I1
tp8288
tp8289
tp8290
tp8291
(I00
S'0 1'
p8292
(I01
I1
tp8293
(I00
S'0 2'
p8294
(I01
I2
tp8295
(I00
S'0 2'
p8296
(I00
S'1 2'
p8297
(I01
I1
tp8298
(I00
S'1 2'
p8299
(I01
I2
tp8300
(I01
I2
tp8301
tp8302
tp8303
(I00
S'1 2'
p8304
(I01
I0
tp8305
(I01
I0
tp8306
tp8307
tp8308
tp8309
tp8310
tp8311
(I00
S'0 2'
p8312
(I00
S'0 1'
p8313
(I01
I2
tp8314
(I00
S'1 1'
p8315
(I00
S'0 1'
p8316
(I00
S'1 2'
p8317
(I01
I0
tp8318
(I01
I0
tp8319
tp8320
(I00
S'1 1'
p8321
(I01
I1
tp8322
(I01
I1
tp8323
tp8324
tp8325
(I00
S'1 2'
p8326
(I00
S'1 1'
p8327
(I01
I1
tp8328
(I01
I1
tp8329
tp8330
(I00
S'0 1'
p8331
(I01
I1
tp8332
(I01
I1
tp8333
tp8334
tp8335
tp8336
tp8337
(I00
S'0 1'
p8338
(I00
S'0 2'
p8339
(I00
S'0 2'
p8340
(I00
S'1 1'
p8341
(I01
I0
tp8342
(I00
S'1 1'
p8343
(I01
I2
tp8344
(I01
I2
tp8345
tp8346
tp8347
(I00
S'1 2'
p8348
(I01
I0
tp8349
(I01
I0
tp8350
tp8351
tp8352
(I00
S'0 2'
p8353
(I01
I0
tp8354
(I00
S'1 1'
p8355
(I00
S'0 1'
p8356
(I01
I2
tp8357
(I01
I0
tp8358
tp8359
(I01
I1
tp8360
tp8361
tp8362
tp8363
(I00
S'1 1'
p8364
(I00
S'0 2'
p8365
(I01
I2
tp8366
(I01
I2
tp8367
tp8368
(I00
S'1 1'
p8369
(I00
S'1 2'
p8370
(I01
I1
tp8371
(I01
I1
tp8372
tp8373
(I00
S'0 1'
p8374
(I00
S'1 1'
p8375
(I01
I2
tp8376
(I01
I0
tp8377
tp8378
(I00
S'1 2'
p8379
(I01
I1
tp8380
(I01
I1
tp8381
tp8382
tp8383
tp8384
tp8385
tp8386
tp8387
tp8388
tp8389
tp8390
bag1
(tRp8391
(S'-12.5664 12.5664 -50 50 '
p8392
I2
F0.8500000238418579
F0.10000000149011612
F0.25
(I00
S'0 2'
p8393
(I00
S'0 1'
p8394
(I00
S'1 1'
p8395
(I00
S'1 2'
p8396
(I00
S'0 1'
p8397
(I01
I0
tp8398
(I00
S'0 2'
p8399
(I01
I0
tp8400
(I01
I1
tp8401
tp8402
tp8403
(I00
S'0 2'
p8404
(I01
I2
tp8405
(I01
I1
tp8406
tp8407
tp8408
(I00
S'0 2'
p8409
(I00
S'0 2'
p8410
(I01
I1
tp8411
(I01
I0
tp8412
tp8413
(I01
I1
tp8414
tp8415
tp8416
(I00
S'1 1'
p8417
(I01
I1
tp8418
(I00
S'0 2'
p8419
(I00
S'1 2'
p8420
(I00
S'0 1'
p8421
(I01
I0
tp8422
(I00
S'1 1'
p8423
(I01
I1
tp8424
(I00
S'0 1'
p8425
(I01
I0
tp8426
(I01
I0
tp8427
tp8428
tp8429
tp8430
(I00
S'0 1'
p8431
(I00
S'0 2'
p8432
(I01
I2
tp8433
(I01
I2
tp8434
tp8435
(I00
S'0 1'
p8436
(I01
I2
tp8437
(I01
I2
tp8438
tp8439
tp8440
tp8441
(I01
I2
tp8442
tp8443
tp8444
tp8445
(I00
S'1 1'
p8446
(I00
S'0 2'
p8447
(I00
S'0 2'
p8448
(I00
S'0 1'
p8449
(I00
S'1 1'
p8450
(I00
S'1 1'
p8451
(I01
I1
tp8452
(I01
I1
tp8453
tp8454
(I01
I0
tp8455
tp8456
(I00
S'1 1'
p8457
(I00
S'0 2'
p8458
(I01
I0
tp8459
(I01
I1
tp8460
tp8461
(I01
I0
tp8462
tp8463
tp8464
(I00
S'0 1'
p8465
(I00
S'0 1'
p8466
(I01
I0
tp8467
(I01
I1
tp8468
tp8469
(I00
S'1 1'
p8470
(I01
I2
tp8471
(I01
I1
tp8472
tp8473
tp8474
tp8475
(I00
S'0 1'
p8476
(I01
I1
tp8477
(I00
S'0 2'
p8478
(I01
I2
tp8479
(I00
S'0 2'
p8480
(I00
S'1 2'
p8481
(I01
I1
tp8482
(I00
S'1 2'
p8483
(I01
I2
tp8484
(I01
I2
tp8485
tp8486
tp8487
(I00
S'1 2'
p8488
(I01
I0
tp8489
(I01
I0
tp8490
tp8491
tp8492
tp8493
tp8494
tp8495
(I00
S'0 2'
p8496
(I00
S'0 1'
p8497
(I01
I2
tp8498
(I00
S'1 1'
p8499
(I00
S'0 1'
p8500
(I00
S'1 2'
p8501
(I01
I0
tp8502
(I01
I0
tp8503
tp8504
(I00
S'1 1'
p8505
(I01
I1
tp8506
(I01
I1
tp8507
tp8508
tp8509
(I00
S'1 2'
p8510
(I00
S'1 1'
p8511
(I01
I1
tp8512
(I01
I1
tp8513
tp8514
(I00
S'0 1'
p8515
(I01
I1
tp8516
(I01
I1
tp8517
tp8518
tp8519
tp8520
tp8521
(I00
S'0 1'
p8522
(I00
S'0 2'
p8523
(I00
S'0 2'
p8524
(I00
S'1 1'
p8525
(I01
I0
tp8526
(I00
S'1 1'
p8527
(I01
I2
tp8528
(I01
I2
tp8529
tp8530
tp8531
(I00
S'1 2'
p8532
(I01
I0
tp8533
(I01
I0
tp8534
tp8535
tp8536
(I00
S'0 2'
p8537
(I01
I0
tp8538
(I00
S'1 1'
p8539
(I00
S'0 1'
p8540
(I01
I2
tp8541
(I01
I0
tp8542
tp8543
(I01
I1
tp8544
tp8545
tp8546
tp8547
(I00
S'1 1'
p8548
(I00
S'0 2'
p8549
(I01
I2
tp8550
(I01
I2
tp8551
tp8552
(I00
S'1 1'
p8553
(I00
S'1 2'
p8554
(I01
I1
tp8555
(I01
I1
tp8556
tp8557
(I00
S'0 1'
p8558
(I00
S'1 1'
p8559
(I01
I2
tp8560
(I01
I0
tp8561
tp8562
(I00
S'1 2'
p8563
(I01
I1
tp8564
(I01
I1
tp8565
tp8566
tp8567
tp8568
tp8569
tp8570
tp8571
tp8572
tp8573
tp8574
bag1
(tRp8575
(S'-12.5664 12.5664 -50 50 '
p8576
I2
F0.8500000238418579
F0.10000000149011612
F0.25
(I00
S'0 2'
p8577
(I00
S'0 1'
p8578
(I00
S'1 1'
p8579
(I00
S'1 2'
p8580
(I00
S'0 1'
p8581
(I01
I0
tp8582
(I00
S'0 2'
p8583
(I01
I0
tp8584
(I01
I1
tp8585
tp8586
tp8587
(I00
S'0 2'
p8588
(I01
I2
tp8589
(I01
I1
tp8590
tp8591
tp8592
(I00
S'0 2'
p8593
(I00
S'0 2'
p8594
(I01
I1
tp8595
(I01
I0
tp8596
tp8597
(I01
I0
tp8598
tp8599
tp8600
(I00
S'1 1'
p8601
(I01
I1
tp8602
(I00
S'0 2'
p8603
(I00
S'1 2'
p8604
(I00
S'0 1'
p8605
(I01
I0
tp8606
(I00
S'1 1'
p8607
(I01
I1
tp8608
(I00
S'0 1'
p8609
(I01
I0
tp8610
(I01
I0
tp8611
tp8612
tp8613
tp8614
(I00
S'0 1'
p8615
(I00
S'0 2'
p8616
(I01
I2
tp8617
(I01
I2
tp8618
tp8619
(I00
S'0 1'
p8620
(I01
I2
tp8621
(I01
I2
tp8622
tp8623
tp8624
tp8625
(I01
I2
tp8626
tp8627
tp8628
tp8629
(I00
S'1 1'
p8630
(I00
S'0 2'
p8631
(I00
S'0 2'
p8632
(I00
S'0 1'
p8633
(I00
S'1 1'
p8634
(I00
S'1 1'
p8635
(I01
I1
tp8636
(I01
I1
tp8637
tp8638
(I01
I0
tp8639
tp8640
(I00
S'1 1'
p8641
(I00
S'0 2'
p8642
(I01
I0
tp8643
(I01
I1
tp8644
tp8645
(I01
I0
tp8646
tp8647
tp8648
(I00
S'0 1'
p8649
(I00
S'0 1'
p8650
(I01
I0
tp8651
(I01
I1
tp8652
tp8653
(I00
S'1 1'
p8654
(I01
I2
tp8655
(I01
I1
tp8656
tp8657
tp8658
tp8659
(I00
S'0 1'
p8660
(I01
I1
tp8661
(I00
S'0 2'
p8662
(I01
I2
tp8663
(I00
S'0 2'
p8664
(I00
S'1 2'
p8665
(I01
I1
tp8666
(I00
S'1 2'
p8667
(I01
I2
tp8668
(I01
I2
tp8669
tp8670
tp8671
(I00
S'1 2'
p8672
(I01
I0
tp8673
(I01
I0
tp8674
tp8675
tp8676
tp8677
tp8678
tp8679
(I00
S'0 2'
p8680
(I00
S'0 1'
p8681
(I01
I2
tp8682
(I00
S'1 1'
p8683
(I00
S'0 1'
p8684
(I00
S'1 2'
p8685
(I01
I0
tp8686
(I01
I0
tp8687
tp8688
(I00
S'1 1'
p8689
(I01
I1
tp8690
(I01
I2
tp8691
tp8692
tp8693
(I00
S'1 2'
p8694
(I00
S'1 1'
p8695
(I01
I1
tp8696
(I01
I1
tp8697
tp8698
(I00
S'0 1'
p8699
(I01
I1
tp8700
(I01
I1
tp8701
tp8702
tp8703
tp8704
tp8705
(I00
S'0 1'
p8706
(I00
S'0 2'
p8707
(I00
S'0 2'
p8708
(I00
S'1 1'
p8709
(I01
I0
tp8710
(I00
S'1 1'
p8711
(I01
I2
tp8712
(I01
I1
tp8713
tp8714
tp8715
(I00
S'1 2'
p8716
(I01
I0
tp8717
(I01
I0
tp8718
tp8719
tp8720
(I00
S'0 2'
p8721
(I01
I0
tp8722
(I00
S'1 1'
p8723
(I00
S'0 1'
p8724
(I01
I2
tp8725
(I01
I0
tp8726
tp8727
(I01
I1
tp8728
tp8729
tp8730
tp8731
(I00
S'1 1'
p8732
(I00
S'0 2'
p8733
(I01
I2
tp8734
(I01
I2
tp8735
tp8736
(I00
S'1 1'
p8737
(I00
S'1 2'
p8738
(I01
I1
tp8739
(I01
I1
tp8740
tp8741
(I00
S'0 1'
p8742
(I00
S'1 1'
p8743
(I01
I2
tp8744
(I01
I0
tp8745
tp8746
(I00
S'1 2'
p8747
(I01
I1
tp8748
(I01
I1
tp8749
tp8750
tp8751
tp8752
tp8753
tp8754
tp8755
tp8756
tp8757
tp8758
bag1
(tRp8759
(S'-12.5664 12.5664 -50 50 '
p8760
I2
F0.8500000238418579
F0.10000000149011612
F0.25
(I00
S'0 2'
p8761
(I00
S'0 1'
p8762
(I00
S'1 1'
p8763
(I00
S'1 2'
p8764
(I00
S'0 1'
p8765
(I01
I0
tp8766
(I00
S'0 2'
p8767
(I01
I0
tp8768
(I01
I1
tp8769
tp8770
tp8771
(I00
S'0 2'
p8772
(I01
I2
tp8773
(I01
I1
tp8774
tp8775
tp8776
(I00
S'0 2'
p8777
(I00
S'0 2'
p8778
(I01
I1
tp8779
(I01
I0
tp8780
tp8781
(I01
I0
tp8782
tp8783
tp8784
(I00
S'1 1'
p8785
(I01
I1
tp8786
(I00
S'0 2'
p8787
(I00
S'1 2'
p8788
(I00
S'0 1'
p8789
(I01
I0
tp8790
(I00
S'1 1'
p8791
(I01
I1
tp8792
(I00
S'0 1'
p8793
(I01
I0
tp8794
(I01
I0
tp8795
tp8796
tp8797
tp8798
(I00
S'0 1'
p8799
(I00
S'0 2'
p8800
(I01
I2
tp8801
(I01
I2
tp8802
tp8803
(I00
S'0 1'
p8804
(I01
I2
tp8805
(I01
I2
tp8806
tp8807
tp8808
tp8809
(I01
I2
tp8810
tp8811
tp8812
tp8813
(I00
S'1 1'
p8814
(I00
S'0 2'
p8815
(I00
S'0 2'
p8816
(I00
S'0 1'
p8817
(I00
S'1 1'
p8818
(I00
S'1 1'
p8819
(I01
I1
tp8820
(I01
I1
tp8821
tp8822
(I01
I0
tp8823
tp8824
(I00
S'1 1'
p8825
(I00
S'0 2'
p8826
(I01
I0
tp8827
(I01
I1
tp8828
tp8829
(I01
I0
tp8830
tp8831
tp8832
(I00
S'0 1'
p8833
(I00
S'0 1'
p8834
(I01
I0
tp8835
(I01
I1
tp8836
tp8837
(I00
S'1 1'
p8838
(I01
I2
tp8839
(I01
I1
tp8840
tp8841
tp8842
tp8843
(I00
S'0 1'
p8844
(I01
I1
tp8845
(I00
S'0 2'
p8846
(I01
I2
tp8847
(I00
S'0 2'
p8848
(I00
S'1 2'
p8849
(I01
I1
tp8850
(I00
S'1 2'
p8851
(I01
I2
tp8852
(I01
I2
tp8853
tp8854
tp8855
(I00
S'1 2'
p8856
(I01
I0
tp8857
(I01
I0
tp8858
tp8859
tp8860
tp8861
tp8862
tp8863
(I00
S'0 2'
p8864
(I00
S'0 1'
p8865
(I01
I2
tp8866
(I00
S'1 1'
p8867
(I00
S'0 1'
p8868
(I00
S'1 2'
p8869
(I01
I0
tp8870
(I01
I0
tp8871
tp8872
(I00
S'1 1'
p8873
(I01
I1
tp8874
(I01
I1
tp8875
tp8876
tp8877
(I00
S'1 2'
p8878
(I00
S'1 1'
p8879
(I01
I1
tp8880
(I01
I1
tp8881
tp8882
(I00
S'0 1'
p8883
(I01
I1
tp8884
(I01
I1
tp8885
tp8886
tp8887
tp8888
tp8889
(I00
S'0 1'
p8890
(I00
S'0 2'
p8891
(I00
S'0 2'
p8892
(I00
S'1 1'
p8893
(I01
I0
tp8894
(I00
S'1 1'
p8895
(I01
I2
tp8896
(I01
I2
tp8897
tp8898
tp8899
(I00
S'1 2'
p8900
(I01
I0
tp8901
(I01
I0
tp8902
tp8903
tp8904
(I00
S'0 2'
p8905
(I01
I0
tp8906
(I00
S'1 1'
p8907
(I00
S'0 1'
p8908
(I01
I2
tp8909
(I01
I0
tp8910
tp8911
(I01
I1
tp8912
tp8913
tp8914
tp8915
(I00
S'1 1'
p8916
(I00
S'0 2'
p8917
(I01
I2
tp8918
(I01
I2
tp8919
tp8920
(I00
S'1 1'
p8921
(I00
S'1 2'
p8922
(I01
I1
tp8923
(I01
I1
tp8924
tp8925
(I00
S'0 1'
p8926
(I00
S'1 1'
p8927
(I01
I2
tp8928
(I01
I0
tp8929
tp8930
(I00
S'1 2'
p8931
(I01
I1
tp8932
(I01
I1
tp8933
tp8934
tp8935
tp8936
tp8937
tp8938
tp8939
tp8940
tp8941
tp8942
bag1
(tRp8943
(S'-12.5664 12.5664 -50 50 '
p8944
I2
F0.8500000238418579
F0.10000000149011612
F0.25
(I00
S'0 2'
p8945
(I00
S'0 1'
p8946
(I00
S'1 1'
p8947
(I00
S'1 2'
p8948
(I00
S'0 1'
p8949
(I01
I0
tp8950
(I00
S'0 2'
p8951
(I01
I0
tp8952
(I01
I1
tp8953
tp8954
tp8955
(I00
S'0 2'
p8956
(I01
I2
tp8957
(I01
I1
tp8958
tp8959
tp8960
(I00
S'0 2'
p8961
(I00
S'0 2'
p8962
(I01
I1
tp8963
(I01
I0
tp8964
tp8965
(I01
I0
tp8966
tp8967
tp8968
(I00
S'1 1'
p8969
(I01
I1
tp8970
(I00
S'0 2'
p8971
(I00
S'1 2'
p8972
(I00
S'0 1'
p8973
(I01
I0
tp8974
(I00
S'1 1'
p8975
(I01
I1
tp8976
(I00
S'0 1'
p8977
(I01
I0
tp8978
(I01
I0
tp8979
tp8980
tp8981
tp8982
(I00
S'0 1'
p8983
(I00
S'0 2'
p8984
(I01
I2
tp8985
(I01
I2
tp8986
tp8987
(I00
S'0 1'
p8988
(I01
I2
tp8989
(I01
I2
tp8990
tp8991
tp8992
tp8993
(I01
I2
tp8994
tp8995
tp8996
tp8997
(I00
S'1 1'
p8998
(I00
S'0 2'
p8999
(I00
S'0 2'
p9000
(I00
S'0 1'
p9001
(I00
S'1 1'
p9002
(I00
S'1 1'
p9003
(I01
I1
tp9004
(I01
I1
tp9005
tp9006
(I01
I0
tp9007
tp9008
(I00
S'1 1'
p9009
(I00
S'0 2'
p9010
(I01
I0
tp9011
(I01
I1
tp9012
tp9013
(I01
I0
tp9014
tp9015
tp9016
(I00
S'0 1'
p9017
(I00
S'0 1'
p9018
(I01
I0
tp9019
(I01
I1
tp9020
tp9021
(I00
S'1 1'
p9022
(I01
I2
tp9023
(I01
I1
tp9024
tp9025
tp9026
tp9027
(I00
S'0 1'
p9028
(I01
I1
tp9029
(I00
S'0 2'
p9030
(I01
I2
tp9031
(I00
S'0 2'
p9032
(I00
S'1 2'
p9033
(I01
I1
tp9034
(I00
S'1 2'
p9035
(I01
I2
tp9036
(I01
I2
tp9037
tp9038
tp9039
(I00
S'1 2'
p9040
(I01
I0
tp9041
(I01
I0
tp9042
tp9043
tp9044
tp9045
tp9046
tp9047
(I00
S'0 2'
p9048
(I00
S'0 1'
p9049
(I01
I2
tp9050
(I00
S'1 1'
p9051
(I00
S'0 1'
p9052
(I00
S'1 2'
p9053
(I01
I0
tp9054
(I01
I0
tp9055
tp9056
(I00
S'1 1'
p9057
(I01
I1
tp9058
(I01
I1
tp9059
tp9060
tp9061
(I00
S'1 2'
p9062
(I00
S'1 1'
p9063
(I01
I1
tp9064
(I01
I1
tp9065
tp9066
(I00
S'0 1'
p9067
(I01
I1
tp9068
(I01
I1
tp9069
tp9070
tp9071
tp9072
tp9073
(I00
S'0 1'
p9074
(I00
S'0 2'
p9075
(I00
S'0 2'
p9076
(I00
S'1 1'
p9077
(I01
I0
tp9078
(I00
S'1 1'
p9079
(I01
I2
tp9080
(I01
I2
tp9081
tp9082
tp9083
(I00
S'1 2'
p9084
(I01
I0
tp9085
(I01
I0
tp9086
tp9087
tp9088
(I00
S'0 2'
p9089
(I01
I0
tp9090
(I00
S'1 1'
p9091
(I00
S'0 1'
p9092
(I01
I2
tp9093
(I01
I0
tp9094
tp9095
(I01
I1
tp9096
tp9097
tp9098
tp9099
(I00
S'1 1'
p9100
(I00
S'0 2'
p9101
(I01
I2
tp9102
(I01
I2
tp9103
tp9104
(I00
S'1 1'
p9105
(I00
S'1 2'
p9106
(I01
I1
tp9107
(I01
I1
tp9108
tp9109
(I00
S'0 1'
p9110
(I00
S'1 1'
p9111
(I01
I2
tp9112
(I01
I0
tp9113
tp9114
(I00
S'1 2'
p9115
(I01
I1
tp9116
(I01
I1
tp9117
tp9118
tp9119
tp9120
tp9121
tp9122
tp9123
tp9124
tp9125
tp9126
ba.cnumpy.core.multiarray
_reconstruct
p9127
(cnumpy
ndarray
p9128
(I0
tp9129
S'b'
p9130
tp9131
Rp9132
(I1
(I50
tp9133
cnumpy
dtype
p9134
(S'f8'
p9135
I0
I1
tp9136
Rp9137
(I3
S'<'
p9138
NNNI-1
I-1
I0
tp9139
bI00
S'(\x9c\xe5X\xf2\x93d?\x9c\x83T\xae^kl?L\xd9\xb5rvkl?\xe4)w\x99ykl?\xe4?\xb1i\x86kl?\x01<\xc5\x9e\xa6kl?19D\x8f\xb7kl?5\xdf\xd8\x8a\xc1kl?5\xdf\xd8\x8a\xc1kl?5\xdf\xd8\x8a\xc1kl?\x8fV\xc5\x0f\xe7kl?\x8fV\xc5\x0f\xe7kl?\xfe\xce`@\x00ll?\xbd\x8d\xe8\x07\x02ll?}\x89\x8c6\x03ll?\xf6\xc5\xd0h\xa8ml?\xc4\xe7<o\xafml?6j"\x12\xb0ml?\xdb\xd3L\x13\xb3ml?H\xdbSR\xb3ml?6_\x00r\xbeml?\xe8\xc2\x8cX\xc3ml?\xd44\x06_\xcaml?\x97k\x91U\xcdml?\x8bp \x03\xceml?I\xcd\x0f\\\xd4ml?I\xcd\x0f\\\xd4ml?|\xf9u\xe6\xf9ml?|\xf9u\xe6\xf9ml?\x9d\xfc\xb5\x99rzl?M\x8d\xc49\xd0\x8bm?&D\x06\xef\x16Oo?@\xa30\xe9{"p?@\xa30\xe9{"p?8\x08\xcfo\x80"p?8\x08\xcfo\x80"p?N\x06\xf7\xb0\xe7up?\xadP3\xeed\xaep?\xdc~\xc2\x18\x93\xaep?u\xa6q\xbc\xda\xafp?t\xdal\x9e\xe1\xafp?\xdc\x16m\xa8\xe0\xdcp?|u\xe5\x9a\xb6&q?\x0fU=YO"t?\x1f\x8c\xb2\x96a\xe0t?\x88\x13\nsXC\xbb?\x88\x13\nsXC\xbb?\xa8\x00\xeb\x0f\xa9Q\xc1?\xae"\x17-\xef\xa3\xc5?\xdf\xf4\xc8\xf5\xb3:\xea?'
p9140
tp9141
b.