(lp0
cfernpy
fern2
p1
(tRp2
(S'-12.5664 12.5664 -50 50 '
p3
I2
F0.8500000238418579
F0.10000000149011612
F0.25
(I00
S'1 1'
p4
(I00
S'1 2'
p5
(I00
S'1 2'
p6
(I01
I2
tp7
(I01
I0
tp8
tp9
(I00
S'0 2'
p10
(I00
S'0 1'
p11
(I00
S'1 2'
p12
(I00
S'0 2'
p13
(I01
I1
tp14
(I00
S'1 2'
p15
(I01
I2
tp16
(I00
S'0 1'
p17
(I01
I2
tp18
(I00
S'1 2'
p19
(I01
I2
tp20
(I01
I2
tp21
tp22
tp23
tp24
tp25
(I01
I0
tp26
tp27
(I00
S'1 2'
p28
(I01
I2
tp29
(I00
S'0 1'
p30
(I01
I0
tp31
(I00
S'1 1'
p32
(I01
I1
tp33
(I01
I1
tp34
tp35
tp36
tp37
tp38
(I00
S'1 1'
p39
(I00
S'1 2'
p40
(I00
S'0 1'
p41
(I01
I0
tp42
(I00
S'1 2'
p43
(I01
I0
tp44
(I01
I0
tp45
tp46
tp47
(I01
I2
tp48
tp49
(I00
S'1 2'
p50
(I01
I1
tp51
(I01
I0
tp52
tp53
tp54
tp55
tp56
(I00
S'0 2'
p57
(I00
S'1 2'
p58
(I00
S'0 1'
p59
(I01
I1
tp60
(I00
S'1 2'
p61
(I00
S'1 2'
p62
(I00
S'1 1'
p63
(I01
I2
tp64
(I01
I2
tp65
tp66
(I00
S'1 1'
p67
(I01
I2
tp68
(I00
S'0 2'
p69
(I01
I1
tp70
(I00
S'1 2'
p71
(I01
I1
tp72
(I01
I2
tp73
tp74
tp75
tp76
tp77
(I00
S'1 1'
p78
(I00
S'1 1'
p79
(I01
I2
tp80
(I01
I0
tp81
tp82
(I00
S'0 2'
p83
(I00
S'1 2'
p84
(I00
S'0 2'
p85
(I00
S'0 1'
p86
(I01
I0
tp87
(I01
I0
tp88
tp89
(I01
I0
tp90
tp91
(I00
S'0 2'
p92
(I01
I0
tp93
(I01
I2
tp94
tp95
tp96
(I01
I0
tp97
tp98
tp99
tp100
tp101
(I00
S'1 1'
p102
(I01
I1
tp103
(I00
S'1 1'
p104
(I00
S'0 1'
p105
(I01
I2
tp106
(I01
I0
tp107
tp108
(I00
S'0 2'
p109
(I01
I2
tp110
(I01
I2
tp111
tp112
tp113
tp114
tp115
(I00
S'1 1'
p116
(I00
S'1 1'
p117
(I01
I0
tp118
(I00
S'1 1'
p119
(I01
I1
tp120
(I00
S'1 2'
p121
(I01
I0
tp122
(I01
I1
tp123
tp124
tp125
tp126
(I01
I1
tp127
tp128
tp129
tp130
tp131
bag1
(tRp132
(S'-12.5664 12.5664 -50 50 '
p133
I2
F0.8500000238418579
F0.10000000149011612
F0.25
(I00
S'1 1'
p134
(I00
S'1 2'
p135
(I00
S'1 2'
p136
(I01
I2
tp137
(I01
I2
tp138
tp139
(I00
S'0 2'
p140
(I00
S'0 1'
p141
(I00
S'1 2'
p142
(I00
S'0 2'
p143
(I01
I1
tp144
(I00
S'1 2'
p145
(I01
I2
tp146
(I00
S'0 1'
p147
(I01
I2
tp148
(I00
S'1 2'
p149
(I00
S'0 2'
p150
(I01
I2
tp151
(I01
I2
tp152
tp153
(I01
I2
tp154
tp155
tp156
tp157
tp158
(I01
I0
tp159
tp160
(I00
S'1 2'
p161
(I01
I2
tp162
(I00
S'0 1'
p163
(I01
I0
tp164
(I00
S'1 1'
p165
(I01
I1
tp166
(I01
I1
tp167
tp168
tp169
tp170
tp171
(I00
S'1 1'
p172
(I00
S'1 2'
p173
(I00
S'0 1'
p174
(I01
I0
tp175
(I00
S'1 2'
p176
(I01
I0
tp177
(I01
I0
tp178
tp179
tp180
(I01
I2
tp181
tp182
(I00
S'1 2'
p183
(I01
I1
tp184
(I01
I0
tp185
tp186
tp187
tp188
tp189
(I00
S'0 2'
p190
(I00
S'1 2'
p191
(I00
S'0 1'
p192
(I01
I1
tp193
(I00
S'1 2'
p194
(I00
S'1 2'
p195
(I00
S'1 1'
p196
(I01
I2
tp197
(I01
I2
tp198
tp199
(I00
S'1 1'
p200
(I01
I2
tp201
(I00
S'0 2'
p202
(I01
I2
tp203
(I00
S'1 2'
p204
(I01
I0
tp205
(I01
I0
tp206
tp207
tp208
tp209
tp210
(I00
S'1 1'
p211
(I00
S'1 1'
p212
(I01
I2
tp213
(I01
I0
tp214
tp215
(I00
S'0 2'
p216
(I00
S'1 2'
p217
(I00
S'0 2'
p218
(I00
S'0 1'
p219
(I01
I0
tp220
(I01
I0
tp221
tp222
(I01
I0
tp223
tp224
(I00
S'0 2'
p225
(I01
I0
tp226
(I01
I2
tp227
tp228
tp229
(I01
I0
tp230
tp231
tp232
tp233
tp234
(I00
S'1 1'
p235
(I01
I1
tp236
(I00
S'1 1'
p237
(I00
S'0 1'
p238
(I01
I2
tp239
(I01
I0
tp240
tp241
(I00
S'0 2'
p242
(I01
I2
tp243
(I01
I2
tp244
tp245
tp246
tp247
tp248
(I00
S'1 1'
p249
(I00
S'1 1'
p250
(I01
I0
tp251
(I00
S'1 1'
p252
(I01
I1
tp253
(I00
S'1 2'
p254
(I01
I0
tp255
(I01
I1
tp256
tp257
tp258
tp259
(I01
I1
tp260
tp261
tp262
tp263
tp264
bag1
(tRp265
(S'-12.5664 12.5664 -50 50 '
p266
I2
F0.8500000238418579
F0.10000000149011612
F0.25
(I00
S'1 1'
p267
(I00
S'1 2'
p268
(I00
S'1 2'
p269
(I01
I2
tp270
(I01
I0
tp271
tp272
(I00
S'0 2'
p273
(I00
S'0 1'
p274
(I00
S'1 2'
p275
(I00
S'0 2'
p276
(I01
I1
tp277
(I00
S'1 2'
p278
(I01
I2
tp279
(I00
S'0 1'
p280
(I01
I2
tp281
(I00
S'1 2'
p282
(I00
S'0 2'
p283
(I01
I2
tp284
(I01
I2
tp285
tp286
(I01
I2
tp287
tp288
tp289
tp290
tp291
(I01
I0
tp292
tp293
(I00
S'1 2'
p294
(I01
I2
tp295
(I00
S'0 1'
p296
(I01
I0
tp297
(I00
S'1 1'
p298
(I01
I1
tp299
(I01
I1
tp300
tp301
tp302
tp303
tp304
(I00
S'1 1'
p305
(I00
S'1 2'
p306
(I00
S'0 1'
p307
(I01
I0
tp308
(I00
S'1 2'
p309
(I01
I0
tp310
(I01
I0
tp311
tp312
tp313
(I01
I2
tp314
tp315
(I00
S'1 2'
p316
(I01
I1
tp317
(I01
I0
tp318
tp319
tp320
tp321
tp322
(I00
S'0 2'
p323
(I00
S'1 2'
p324
(I00
S'0 1'
p325
(I01
I1
tp326
(I00
S'1 2'
p327
(I00
S'1 2'
p328
(I00
S'1 1'
p329
(I01
I2
tp330
(I01
I2
tp331
tp332
(I00
S'1 1'
p333
(I01
I2
tp334
(I00
S'0 2'
p335
(I01
I2
tp336
(I00
S'1 2'
p337
(I01
I0
tp338
(I01
I0
tp339
tp340
tp341
tp342
tp343
(I00
S'1 1'
p344
(I00
S'1 1'
p345
(I01
I2
tp346
(I01
I0
tp347
tp348
(I00
S'0 2'
p349
(I00
S'1 2'
p350
(I00
S'0 2'
p351
(I00
S'0 1'
p352
(I01
I0
tp353
(I01
I0
tp354
tp355
(I01
I0
tp356
tp357
(I00
S'0 2'
p358
(I01
I0
tp359
(I01
I2
tp360
tp361
tp362
(I01
I0
tp363
tp364
tp365
tp366
tp367
(I00
S'1 1'
p368
(I01
I1
tp369
(I00
S'1 1'
p370
(I00
S'0 1'
p371
(I01
I2
tp372
(I01
I0
tp373
tp374
(I00
S'0 2'
p375
(I01
I2
tp376
(I01
I2
tp377
tp378
tp379
tp380
tp381
(I00
S'1 1'
p382
(I00
S'1 1'
p383
(I01
I0
tp384
(I00
S'1 1'
p385
(I01
I1
tp386
(I00
S'1 2'
p387
(I01
I0
tp388
(I01
I1
tp389
tp390
tp391
tp392
(I01
I1
tp393
tp394
tp395
tp396
tp397
bag1
(tRp398
(S'-12.5664 12.5664 -50 50 '
p399
I2
F0.8500000238418579
F0.10000000149011612
F0.25
(I00
S'1 1'
p400
(I00
S'1 2'
p401
(I00
S'1 2'
p402
(I01
I2
tp403
(I01
I2
tp404
tp405
(I00
S'0 2'
p406
(I00
S'0 1'
p407
(I00
S'1 2'
p408
(I00
S'0 2'
p409
(I01
I1
tp410
(I00
S'1 2'
p411
(I01
I2
tp412
(I00
S'0 1'
p413
(I01
I2
tp414
(I00
S'1 2'
p415
(I00
S'0 2'
p416
(I01
I2
tp417
(I01
I2
tp418
tp419
(I01
I2
tp420
tp421
tp422
tp423
tp424
(I01
I0
tp425
tp426
(I00
S'1 2'
p427
(I01
I2
tp428
(I00
S'0 1'
p429
(I01
I0
tp430
(I00
S'1 1'
p431
(I01
I1
tp432
(I01
I1
tp433
tp434
tp435
tp436
tp437
(I00
S'1 1'
p438
(I00
S'1 2'
p439
(I00
S'0 1'
p440
(I01
I0
tp441
(I00
S'1 2'
p442
(I01
I0
tp443
(I01
I0
tp444
tp445
tp446
(I01
I2
tp447
tp448
(I00
S'1 2'
p449
(I01
I1
tp450
(I01
I0
tp451
tp452
tp453
tp454
tp455
(I00
S'0 2'
p456
(I00
S'1 2'
p457
(I00
S'0 1'
p458
(I01
I1
tp459
(I00
S'1 2'
p460
(I00
S'1 2'
p461
(I00
S'1 1'
p462
(I01
I2
tp463
(I01
I2
tp464
tp465
(I00
S'1 1'
p466
(I01
I2
tp467
(I00
S'0 2'
p468
(I01
I2
tp469
(I00
S'1 2'
p470
(I01
I0
tp471
(I01
I0
tp472
tp473
tp474
tp475
tp476
(I00
S'1 1'
p477
(I00
S'1 1'
p478
(I01
I2
tp479
(I01
I0
tp480
tp481
(I00
S'0 2'
p482
(I00
S'1 2'
p483
(I00
S'0 2'
p484
(I00
S'0 1'
p485
(I01
I0
tp486
(I01
I0
tp487
tp488
(I01
I0
tp489
tp490
(I00
S'0 2'
p491
(I01
I0
tp492
(I01
I2
tp493
tp494
tp495
(I01
I0
tp496
tp497
tp498
tp499
tp500
(I00
S'1 1'
p501
(I01
I1
tp502
(I00
S'1 1'
p503
(I00
S'0 1'
p504
(I01
I2
tp505
(I01
I0
tp506
tp507
(I00
S'0 2'
p508
(I01
I2
tp509
(I01
I2
tp510
tp511
tp512
tp513
tp514
(I00
S'1 1'
p515
(I00
S'1 1'
p516
(I01
I0
tp517
(I00
S'1 1'
p518
(I01
I1
tp519
(I00
S'1 2'
p520
(I00
S'0 2'
p521
(I01
I0
tp522
(I01
I0
tp523
tp524
(I01
I1
tp525
tp526
tp527
tp528
(I01
I1
tp529
tp530
tp531
tp532
tp533
bag1
(tRp534
(S'-12.5664 12.5664 -50 50 '
p535
I2
F0.8500000238418579
F0.10000000149011612
F0.25
(I00
S'1 1'
p536
(I00
S'1 2'
p537
(I00
S'1 2'
p538
(I01
I2
tp539
(I01
I2
tp540
tp541
(I00
S'0 2'
p542
(I00
S'0 1'
p543
(I00
S'1 2'
p544
(I00
S'0 2'
p545
(I01
I1
tp546
(I00
S'1 2'
p547
(I01
I2
tp548
(I00
S'0 1'
p549
(I01
I2
tp550
(I00
S'1 2'
p551
(I00
S'0 2'
p552
(I01
I2
tp553
(I01
I2
tp554
tp555
(I01
I2
tp556
tp557
tp558
tp559
tp560
(I01
I0
tp561
tp562
(I00
S'1 2'
p563
(I01
I2
tp564
(I00
S'0 1'
p565
(I01
I0
tp566
(I00
S'1 1'
p567
(I01
I1
tp568
(I01
I1
tp569
tp570
tp571
tp572
tp573
(I00
S'1 1'
p574
(I00
S'1 2'
p575
(I00
S'0 1'
p576
(I01
I0
tp577
(I00
S'1 2'
p578
(I01
I0
tp579
(I01
I0
tp580
tp581
tp582
(I01
I2
tp583
tp584
(I00
S'1 2'
p585
(I01
I1
tp586
(I01
I0
tp587
tp588
tp589
tp590
tp591
(I00
S'0 2'
p592
(I00
S'1 2'
p593
(I00
S'0 1'
p594
(I01
I1
tp595
(I00
S'1 2'
p596
(I00
S'1 2'
p597
(I00
S'1 1'
p598
(I01
I2
tp599
(I01
I2
tp600
tp601
(I00
S'1 1'
p602
(I01
I2
tp603
(I00
S'0 2'
p604
(I01
I2
tp605
(I00
S'1 2'
p606
(I01
I0
tp607
(I01
I0
tp608
tp609
tp610
tp611
tp612
(I00
S'1 1'
p613
(I00
S'1 1'
p614
(I01
I2
tp615
(I01
I0
tp616
tp617
(I00
S'0 2'
p618
(I00
S'1 2'
p619
(I00
S'0 2'
p620
(I00
S'0 1'
p621
(I01
I0
tp622
(I01
I0
tp623
tp624
(I01
I0
tp625
tp626
(I00
S'0 2'
p627
(I01
I0
tp628
(I01
I2
tp629
tp630
tp631
(I01
I0
tp632
tp633
tp634
tp635
tp636
(I00
S'1 1'
p637
(I01
I1
tp638
(I00
S'1 1'
p639
(I00
S'0 1'
p640
(I01
I2
tp641
(I01
I0
tp642
tp643
(I00
S'0 2'
p644
(I01
I2
tp645
(I01
I2
tp646
tp647
tp648
tp649
tp650
(I00
S'1 1'
p651
(I00
S'1 1'
p652
(I01
I0
tp653
(I00
S'1 1'
p654
(I01
I1
tp655
(I00
S'1 2'
p656
(I01
I0
tp657
(I01
I1
tp658
tp659
tp660
tp661
(I01
I1
tp662
tp663
tp664
tp665
tp666
bag1
(tRp667
(S'-12.5664 12.5664 -50 50 '
p668
I2
F0.8500000238418579
F0.10000000149011612
F0.25
(I00
S'1 1'
p669
(I00
S'1 2'
p670
(I00
S'1 2'
p671
(I01
I2
tp672
(I01
I2
tp673
tp674
(I00
S'0 2'
p675
(I00
S'0 1'
p676
(I00
S'1 2'
p677
(I00
S'0 2'
p678
(I01
I1
tp679
(I00
S'1 2'
p680
(I01
I2
tp681
(I00
S'0 1'
p682
(I01
I2
tp683
(I00
S'1 2'
p684
(I00
S'0 2'
p685
(I01
I2
tp686
(I01
I2
tp687
tp688
(I01
I2
tp689
tp690
tp691
tp692
tp693
(I01
I0
tp694
tp695
(I00
S'1 2'
p696
(I01
I2
tp697
(I00
S'0 1'
p698
(I01
I0
tp699
(I00
S'1 1'
p700
(I01
I1
tp701
(I01
I1
tp702
tp703
tp704
tp705
tp706
(I00
S'1 1'
p707
(I00
S'1 2'
p708
(I00
S'0 1'
p709
(I01
I0
tp710
(I00
S'1 2'
p711
(I01
I0
tp712
(I01
I0
tp713
tp714
tp715
(I01
I2
tp716
tp717
(I00
S'1 2'
p718
(I01
I1
tp719
(I01
I0
tp720
tp721
tp722
tp723
tp724
(I00
S'0 2'
p725
(I00
S'1 2'
p726
(I00
S'0 1'
p727
(I01
I1
tp728
(I00
S'1 2'
p729
(I00
S'1 2'
p730
(I00
S'1 1'
p731
(I01
I2
tp732
(I01
I2
tp733
tp734
(I00
S'1 1'
p735
(I01
I2
tp736
(I00
S'0 2'
p737
(I01
I2
tp738
(I00
S'1 2'
p739
(I01
I0
tp740
(I01
I0
tp741
tp742
tp743
tp744
tp745
(I00
S'1 1'
p746
(I00
S'1 1'
p747
(I01
I2
tp748
(I01
I0
tp749
tp750
(I00
S'0 2'
p751
(I00
S'1 2'
p752
(I00
S'0 2'
p753
(I00
S'0 1'
p754
(I01
I0
tp755
(I01
I0
tp756
tp757
(I01
I0
tp758
tp759
(I00
S'0 2'
p760
(I01
I0
tp761
(I01
I2
tp762
tp763
tp764
(I01
I0
tp765
tp766
tp767
tp768
tp769
(I00
S'1 1'
p770
(I01
I1
tp771
(I00
S'1 1'
p772
(I00
S'0 1'
p773
(I01
I2
tp774
(I01
I0
tp775
tp776
(I00
S'0 2'
p777
(I01
I2
tp778
(I01
I2
tp779
tp780
tp781
tp782
tp783
(I00
S'1 1'
p784
(I00
S'1 1'
p785
(I01
I0
tp786
(I00
S'1 1'
p787
(I01
I1
tp788
(I00
S'1 2'
p789
(I01
I0
tp790
(I01
I1
tp791
tp792
tp793
tp794
(I01
I1
tp795
tp796
tp797
tp798
tp799
bag1
(tRp800
(S'-12.5664 12.5664 -50 50 '
p801
I2
F0.8500000238418579
F0.10000000149011612
F0.25
(I00
S'1 1'
p802
(I00
S'1 2'
p803
(I00
S'1 2'
p804
(I01
I2
tp805
(I01
I2
tp806
tp807
(I00
S'0 2'
p808
(I00
S'0 1'
p809
(I00
S'1 2'
p810
(I00
S'0 2'
p811
(I01
I1
tp812
(I00
S'1 2'
p813
(I01
I2
tp814
(I00
S'0 1'
p815
(I01
I2
tp816
(I00
S'1 2'
p817
(I00
S'0 2'
p818
(I01
I2
tp819
(I01
I2
tp820
tp821
(I01
I2
tp822
tp823
tp824
tp825
tp826
(I01
I0
tp827
tp828
(I00
S'1 2'
p829
(I01
I2
tp830
(I00
S'0 1'
p831
(I01
I0
tp832
(I00
S'1 1'
p833
(I01
I1
tp834
(I01
I1
tp835
tp836
tp837
tp838
tp839
(I00
S'1 1'
p840
(I00
S'1 2'
p841
(I00
S'0 1'
p842
(I01
I0
tp843
(I00
S'1 2'
p844
(I01
I0
tp845
(I01
I0
tp846
tp847
tp848
(I01
I2
tp849
tp850
(I00
S'1 2'
p851
(I01
I1
tp852
(I01
I0
tp853
tp854
tp855
tp856
tp857
(I00
S'0 2'
p858
(I00
S'1 2'
p859
(I00
S'0 1'
p860
(I01
I1
tp861
(I00
S'1 2'
p862
(I00
S'1 2'
p863
(I00
S'1 1'
p864
(I01
I2
tp865
(I01
I2
tp866
tp867
(I00
S'1 1'
p868
(I01
I2
tp869
(I00
S'0 2'
p870
(I01
I2
tp871
(I00
S'1 2'
p872
(I01
I0
tp873
(I01
I0
tp874
tp875
tp876
tp877
tp878
(I00
S'1 1'
p879
(I00
S'1 1'
p880
(I01
I2
tp881
(I01
I0
tp882
tp883
(I00
S'0 2'
p884
(I00
S'1 2'
p885
(I00
S'0 2'
p886
(I00
S'0 1'
p887
(I01
I0
tp888
(I01
I0
tp889
tp890
(I01
I0
tp891
tp892
(I00
S'0 2'
p893
(I01
I0
tp894
(I01
I2
tp895
tp896
tp897
(I01
I0
tp898
tp899
tp900
tp901
tp902
(I00
S'1 1'
p903
(I01
I1
tp904
(I00
S'1 1'
p905
(I00
S'0 1'
p906
(I01
I2
tp907
(I01
I0
tp908
tp909
(I00
S'0 2'
p910
(I01
I2
tp911
(I01
I2
tp912
tp913
tp914
tp915
tp916
(I00
S'1 1'
p917
(I00
S'1 1'
p918
(I01
I0
tp919
(I00
S'1 1'
p920
(I01
I1
tp921
(I00
S'1 2'
p922
(I01
I0
tp923
(I01
I1
tp924
tp925
tp926
tp927
(I01
I1
tp928
tp929
tp930
tp931
tp932
bag1
(tRp933
(S'-12.5664 12.5664 -50 50 '
p934
I2
F0.8500000238418579
F0.10000000149011612
F0.25
(I00
S'1 1'
p935
(I00
S'1 2'
p936
(I00
S'1 2'
p937
(I01
I2
tp938
(I01
I2
tp939
tp940
(I00
S'0 2'
p941
(I00
S'0 1'
p942
(I00
S'1 2'
p943
(I00
S'0 2'
p944
(I01
I1
tp945
(I00
S'1 2'
p946
(I01
I2
tp947
(I00
S'0 1'
p948
(I01
I2
tp949
(I00
S'1 2'
p950
(I00
S'0 2'
p951
(I01
I2
tp952
(I01
I2
tp953
tp954
(I01
I2
tp955
tp956
tp957
tp958
tp959
(I01
I0
tp960
tp961
(I00
S'1 2'
p962
(I01
I2
tp963
(I00
S'0 1'
p964
(I01
I0
tp965
(I00
S'1 1'
p966
(I01
I1
tp967
(I01
I1
tp968
tp969
tp970
tp971
tp972
(I00
S'1 1'
p973
(I00
S'1 2'
p974
(I00
S'0 1'
p975
(I01
I0
tp976
(I00
S'1 2'
p977
(I01
I0
tp978
(I01
I0
tp979
tp980
tp981
(I01
I2
tp982
tp983
(I00
S'1 2'
p984
(I01
I1
tp985
(I01
I0
tp986
tp987
tp988
tp989
tp990
(I00
S'0 2'
p991
(I00
S'1 2'
p992
(I00
S'0 1'
p993
(I01
I1
tp994
(I00
S'1 2'
p995
(I00
S'1 2'
p996
(I00
S'1 1'
p997
(I01
I2
tp998
(I01
I2
tp999
tp1000
(I00
S'1 1'
p1001
(I01
I2
tp1002
(I00
S'0 2'
p1003
(I01
I2
tp1004
(I00
S'1 2'
p1005
(I01
I0
tp1006
(I01
I0
tp1007
tp1008
tp1009
tp1010
tp1011
(I00
S'1 1'
p1012
(I00
S'1 1'
p1013
(I01
I2
tp1014
(I01
I0
tp1015
tp1016
(I00
S'0 2'
p1017
(I00
S'1 2'
p1018
(I00
S'0 2'
p1019
(I00
S'0 1'
p1020
(I01
I0
tp1021
(I01
I0
tp1022
tp1023
(I01
I0
tp1024
tp1025
(I00
S'0 2'
p1026
(I01
I0
tp1027
(I01
I2
tp1028
tp1029
tp1030
(I01
I0
tp1031
tp1032
tp1033
tp1034
tp1035
(I00
S'1 1'
p1036
(I01
I1
tp1037
(I00
S'1 1'
p1038
(I00
S'0 1'
p1039
(I01
I2
tp1040
(I01
I0
tp1041
tp1042
(I00
S'0 2'
p1043
(I01
I2
tp1044
(I01
I2
tp1045
tp1046
tp1047
tp1048
tp1049
(I00
S'1 1'
p1050
(I00
S'1 1'
p1051
(I01
I0
tp1052
(I00
S'1 1'
p1053
(I01
I1
tp1054
(I00
S'1 2'
p1055
(I01
I0
tp1056
(I01
I1
tp1057
tp1058
tp1059
tp1060
(I01
I1
tp1061
tp1062
tp1063
tp1064
tp1065
bag1
(tRp1066
(S'-12.5664 12.5664 -50 50 '
p1067
I2
F0.8500000238418579
F0.10000000149011612
F0.25
(I00
S'1 1'
p1068
(I00
S'1 2'
p1069
(I00
S'1 2'
p1070
(I01
I2
tp1071
(I01
I2
tp1072
tp1073
(I00
S'0 2'
p1074
(I00
S'0 1'
p1075
(I00
S'1 2'
p1076
(I00
S'0 2'
p1077
(I01
I1
tp1078
(I00
S'1 2'
p1079
(I01
I2
tp1080
(I00
S'0 1'
p1081
(I01
I2
tp1082
(I00
S'1 2'
p1083
(I00
S'0 2'
p1084
(I01
I2
tp1085
(I01
I2
tp1086
tp1087
(I01
I2
tp1088
tp1089
tp1090
tp1091
tp1092
(I01
I0
tp1093
tp1094
(I00
S'1 2'
p1095
(I01
I2
tp1096
(I00
S'0 1'
p1097
(I01
I0
tp1098
(I00
S'1 1'
p1099
(I01
I1
tp1100
(I01
I1
tp1101
tp1102
tp1103
tp1104
tp1105
(I00
S'1 1'
p1106
(I00
S'1 2'
p1107
(I00
S'0 1'
p1108
(I01
I0
tp1109
(I00
S'1 2'
p1110
(I01
I0
tp1111
(I01
I0
tp1112
tp1113
tp1114
(I01
I2
tp1115
tp1116
(I00
S'1 2'
p1117
(I01
I1
tp1118
(I01
I0
tp1119
tp1120
tp1121
tp1122
tp1123
(I00
S'0 2'
p1124
(I00
S'1 2'
p1125
(I00
S'0 1'
p1126
(I01
I1
tp1127
(I00
S'1 2'
p1128
(I00
S'1 2'
p1129
(I00
S'1 1'
p1130
(I01
I2
tp1131
(I01
I2
tp1132
tp1133
(I00
S'1 1'
p1134
(I01
I2
tp1135
(I00
S'0 2'
p1136
(I01
I2
tp1137
(I00
S'1 2'
p1138
(I01
I0
tp1139
(I01
I0
tp1140
tp1141
tp1142
tp1143
tp1144
(I00
S'1 1'
p1145
(I00
S'1 1'
p1146
(I01
I2
tp1147
(I01
I0
tp1148
tp1149
(I00
S'0 2'
p1150
(I00
S'1 2'
p1151
(I00
S'0 2'
p1152
(I00
S'0 1'
p1153
(I01
I0
tp1154
(I01
I0
tp1155
tp1156
(I01
I0
tp1157
tp1158
(I00
S'0 2'
p1159
(I01
I0
tp1160
(I01
I2
tp1161
tp1162
tp1163
(I01
I0
tp1164
tp1165
tp1166
tp1167
tp1168
(I00
S'1 1'
p1169
(I01
I1
tp1170
(I00
S'1 1'
p1171
(I00
S'0 1'
p1172
(I01
I2
tp1173
(I01
I0
tp1174
tp1175
(I00
S'0 2'
p1176
(I01
I2
tp1177
(I01
I2
tp1178
tp1179
tp1180
tp1181
tp1182
(I00
S'1 1'
p1183
(I00
S'1 1'
p1184
(I01
I0
tp1185
(I00
S'1 1'
p1186
(I01
I1
tp1187
(I00
S'1 2'
p1188
(I01
I0
tp1189
(I01
I1
tp1190
tp1191
tp1192
tp1193
(I01
I1
tp1194
tp1195
tp1196
tp1197
tp1198
bag1
(tRp1199
(S'-12.5664 12.5664 -50 50 '
p1200
I2
F0.8500000238418579
F0.10000000149011612
F0.25
(I00
S'1 1'
p1201
(I00
S'1 2'
p1202
(I00
S'1 2'
p1203
(I01
I2
tp1204
(I01
I2
tp1205
tp1206
(I00
S'0 2'
p1207
(I00
S'0 1'
p1208
(I00
S'1 2'
p1209
(I00
S'0 2'
p1210
(I01
I1
tp1211
(I00
S'1 2'
p1212
(I01
I2
tp1213
(I00
S'0 1'
p1214
(I01
I2
tp1215
(I00
S'1 2'
p1216
(I00
S'0 2'
p1217
(I01
I2
tp1218
(I01
I2
tp1219
tp1220
(I01
I2
tp1221
tp1222
tp1223
tp1224
tp1225
(I01
I0
tp1226
tp1227
(I00
S'1 2'
p1228
(I01
I2
tp1229
(I00
S'0 1'
p1230
(I01
I0
tp1231
(I00
S'1 1'
p1232
(I01
I1
tp1233
(I01
I1
tp1234
tp1235
tp1236
tp1237
tp1238
(I00
S'1 1'
p1239
(I00
S'1 2'
p1240
(I00
S'0 1'
p1241
(I01
I0
tp1242
(I00
S'1 2'
p1243
(I01
I0
tp1244
(I01
I0
tp1245
tp1246
tp1247
(I01
I2
tp1248
tp1249
(I00
S'1 2'
p1250
(I01
I1
tp1251
(I01
I0
tp1252
tp1253
tp1254
tp1255
tp1256
(I00
S'0 2'
p1257
(I00
S'1 2'
p1258
(I00
S'0 1'
p1259
(I01
I1
tp1260
(I00
S'1 2'
p1261
(I00
S'1 2'
p1262
(I00
S'1 1'
p1263
(I01
I2
tp1264
(I01
I2
tp1265
tp1266
(I00
S'1 1'
p1267
(I01
I2
tp1268
(I00
S'0 2'
p1269
(I01
I2
tp1270
(I00
S'1 2'
p1271
(I01
I0
tp1272
(I01
I0
tp1273
tp1274
tp1275
tp1276
tp1277
(I00
S'1 1'
p1278
(I00
S'1 1'
p1279
(I01
I2
tp1280
(I01
I0
tp1281
tp1282
(I00
S'0 2'
p1283
(I00
S'1 2'
p1284
(I00
S'0 2'
p1285
(I00
S'0 1'
p1286
(I01
I0
tp1287
(I01
I0
tp1288
tp1289
(I01
I0
tp1290
tp1291
(I00
S'0 2'
p1292
(I01
I0
tp1293
(I01
I2
tp1294
tp1295
tp1296
(I01
I0
tp1297
tp1298
tp1299
tp1300
tp1301
(I00
S'1 1'
p1302
(I01
I1
tp1303
(I00
S'1 1'
p1304
(I00
S'0 1'
p1305
(I01
I2
tp1306
(I01
I0
tp1307
tp1308
(I00
S'0 2'
p1309
(I01
I2
tp1310
(I01
I2
tp1311
tp1312
tp1313
tp1314
tp1315
(I00
S'1 1'
p1316
(I00
S'1 1'
p1317
(I01
I0
tp1318
(I00
S'1 1'
p1319
(I01
I1
tp1320
(I00
S'1 2'
p1321
(I01
I0
tp1322
(I01
I1
tp1323
tp1324
tp1325
tp1326
(I01
I1
tp1327
tp1328
tp1329
tp1330
tp1331
bag1
(tRp1332
(S'-12.5664 12.5664 -50 50 '
p1333
I2
F0.8500000238418579
F0.10000000149011612
F0.25
(I00
S'1 1'
p1334
(I00
S'1 2'
p1335
(I00
S'1 2'
p1336
(I01
I2
tp1337
(I01
I2
tp1338
tp1339
(I00
S'0 2'
p1340
(I00
S'0 1'
p1341
(I00
S'1 2'
p1342
(I00
S'0 2'
p1343
(I01
I1
tp1344
(I00
S'1 2'
p1345
(I01
I2
tp1346
(I00
S'0 1'
p1347
(I01
I2
tp1348
(I00
S'1 2'
p1349
(I00
S'0 2'
p1350
(I01
I2
tp1351
(I01
I2
tp1352
tp1353
(I01
I2
tp1354
tp1355
tp1356
tp1357
tp1358
(I01
I0
tp1359
tp1360
(I00
S'1 2'
p1361
(I01
I2
tp1362
(I00
S'0 1'
p1363
(I01
I0
tp1364
(I00
S'1 1'
p1365
(I01
I1
tp1366
(I01
I1
tp1367
tp1368
tp1369
tp1370
tp1371
(I00
S'1 1'
p1372
(I00
S'1 2'
p1373
(I00
S'0 1'
p1374
(I01
I0
tp1375
(I00
S'1 2'
p1376
(I01
I0
tp1377
(I01
I0
tp1378
tp1379
tp1380
(I01
I2
tp1381
tp1382
(I00
S'1 2'
p1383
(I01
I1
tp1384
(I01
I0
tp1385
tp1386
tp1387
tp1388
tp1389
(I00
S'0 2'
p1390
(I00
S'1 2'
p1391
(I00
S'0 1'
p1392
(I01
I1
tp1393
(I00
S'1 2'
p1394
(I00
S'1 2'
p1395
(I00
S'1 1'
p1396
(I01
I2
tp1397
(I01
I2
tp1398
tp1399
(I00
S'1 1'
p1400
(I01
I2
tp1401
(I00
S'0 2'
p1402
(I01
I2
tp1403
(I00
S'1 2'
p1404
(I01
I0
tp1405
(I01
I0
tp1406
tp1407
tp1408
tp1409
tp1410
(I00
S'1 1'
p1411
(I00
S'1 1'
p1412
(I01
I2
tp1413
(I01
I0
tp1414
tp1415
(I00
S'0 2'
p1416
(I00
S'1 2'
p1417
(I00
S'0 2'
p1418
(I00
S'0 1'
p1419
(I01
I0
tp1420
(I01
I0
tp1421
tp1422
(I01
I0
tp1423
tp1424
(I00
S'0 2'
p1425
(I01
I0
tp1426
(I01
I2
tp1427
tp1428
tp1429
(I01
I0
tp1430
tp1431
tp1432
tp1433
tp1434
(I00
S'1 1'
p1435
(I01
I1
tp1436
(I00
S'1 1'
p1437
(I00
S'0 1'
p1438
(I01
I2
tp1439
(I01
I0
tp1440
tp1441
(I00
S'0 2'
p1442
(I01
I2
tp1443
(I01
I2
tp1444
tp1445
tp1446
tp1447
tp1448
(I00
S'1 1'
p1449
(I00
S'1 1'
p1450
(I01
I0
tp1451
(I00
S'1 1'
p1452
(I01
I1
tp1453
(I00
S'1 2'
p1454
(I01
I0
tp1455
(I01
I1
tp1456
tp1457
tp1458
tp1459
(I01
I1
tp1460
tp1461
tp1462
tp1463
tp1464
bag1
(tRp1465
(S'-12.5664 12.5664 -50 50 '
p1466
I2
F0.8500000238418579
F0.10000000149011612
F0.25
(I00
S'1 1'
p1467
(I00
S'1 2'
p1468
(I00
S'1 2'
p1469
(I01
I2
tp1470
(I01
I2
tp1471
tp1472
(I00
S'0 2'
p1473
(I00
S'0 1'
p1474
(I00
S'1 2'
p1475
(I00
S'0 2'
p1476
(I01
I1
tp1477
(I00
S'1 2'
p1478
(I01
I2
tp1479
(I00
S'0 1'
p1480
(I01
I2
tp1481
(I00
S'1 2'
p1482
(I01
I2
tp1483
(I01
I2
tp1484
tp1485
tp1486
tp1487
tp1488
(I01
I0
tp1489
tp1490
(I00
S'1 2'
p1491
(I01
I2
tp1492
(I00
S'0 1'
p1493
(I01
I0
tp1494
(I00
S'1 1'
p1495
(I01
I1
tp1496
(I01
I1
tp1497
tp1498
tp1499
tp1500
tp1501
(I00
S'1 1'
p1502
(I00
S'1 2'
p1503
(I00
S'0 1'
p1504
(I01
I0
tp1505
(I00
S'1 2'
p1506
(I01
I0
tp1507
(I01
I0
tp1508
tp1509
tp1510
(I01
I2
tp1511
tp1512
(I00
S'1 2'
p1513
(I01
I1
tp1514
(I01
I0
tp1515
tp1516
tp1517
tp1518
tp1519
(I00
S'0 2'
p1520
(I00
S'1 2'
p1521
(I00
S'0 1'
p1522
(I01
I1
tp1523
(I00
S'1 2'
p1524
(I00
S'0 2'
p1525
(I00
S'1 1'
p1526
(I01
I2
tp1527
(I01
I2
tp1528
tp1529
(I00
S'1 1'
p1530
(I01
I2
tp1531
(I00
S'0 2'
p1532
(I01
I2
tp1533
(I00
S'1 2'
p1534
(I01
I1
tp1535
(I01
I0
tp1536
tp1537
tp1538
tp1539
tp1540
(I00
S'1 1'
p1541
(I00
S'1 1'
p1542
(I01
I2
tp1543
(I01
I0
tp1544
tp1545
(I00
S'0 2'
p1546
(I00
S'1 2'
p1547
(I00
S'0 2'
p1548
(I00
S'0 1'
p1549
(I01
I0
tp1550
(I01
I0
tp1551
tp1552
(I01
I0
tp1553
tp1554
(I00
S'0 2'
p1555
(I01
I0
tp1556
(I01
I2
tp1557
tp1558
tp1559
(I01
I0
tp1560
tp1561
tp1562
tp1563
tp1564
(I00
S'1 1'
p1565
(I00
S'0 1'
p1566
(I01
I1
tp1567
(I01
I1
tp1568
tp1569
(I00
S'1 1'
p1570
(I00
S'0 1'
p1571
(I01
I2
tp1572
(I01
I0
tp1573
tp1574
(I00
S'0 2'
p1575
(I01
I2
tp1576
(I01
I2
tp1577
tp1578
tp1579
tp1580
tp1581
(I00
S'1 1'
p1582
(I00
S'1 1'
p1583
(I01
I0
tp1584
(I00
S'1 1'
p1585
(I01
I1
tp1586
(I00
S'1 2'
p1587
(I01
I0
tp1588
(I01
I1
tp1589
tp1590
tp1591
tp1592
(I01
I1
tp1593
tp1594
tp1595
tp1596
tp1597
bag1
(tRp1598
(S'-12.5664 12.5664 -50 50 '
p1599
I2
F0.8500000238418579
F0.10000000149011612
F0.25
(I00
S'1 1'
p1600
(I00
S'1 2'
p1601
(I00
S'1 2'
p1602
(I01
I2
tp1603
(I01
I2
tp1604
tp1605
(I00
S'0 2'
p1606
(I00
S'0 1'
p1607
(I00
S'1 2'
p1608
(I00
S'0 2'
p1609
(I01
I1
tp1610
(I00
S'1 2'
p1611
(I01
I2
tp1612
(I00
S'0 1'
p1613
(I01
I2
tp1614
(I00
S'1 2'
p1615
(I00
S'0 2'
p1616
(I01
I2
tp1617
(I01
I2
tp1618
tp1619
(I01
I2
tp1620
tp1621
tp1622
tp1623
tp1624
(I01
I0
tp1625
tp1626
(I00
S'1 2'
p1627
(I01
I2
tp1628
(I00
S'0 1'
p1629
(I01
I0
tp1630
(I00
S'1 1'
p1631
(I01
I1
tp1632
(I01
I1
tp1633
tp1634
tp1635
tp1636
tp1637
(I00
S'1 1'
p1638
(I00
S'1 2'
p1639
(I00
S'0 1'
p1640
(I01
I0
tp1641
(I00
S'1 2'
p1642
(I01
I0
tp1643
(I01
I0
tp1644
tp1645
tp1646
(I01
I2
tp1647
tp1648
(I00
S'1 2'
p1649
(I01
I1
tp1650
(I01
I0
tp1651
tp1652
tp1653
tp1654
tp1655
(I00
S'0 2'
p1656
(I00
S'1 2'
p1657
(I00
S'0 1'
p1658
(I01
I1
tp1659
(I00
S'1 2'
p1660
(I00
S'1 2'
p1661
(I00
S'1 1'
p1662
(I01
I2
tp1663
(I01
I2
tp1664
tp1665
(I00
S'1 1'
p1666
(I01
I2
tp1667
(I00
S'0 2'
p1668
(I01
I2
tp1669
(I00
S'1 2'
p1670
(I01
I0
tp1671
(I01
I0
tp1672
tp1673
tp1674
tp1675
tp1676
(I00
S'1 1'
p1677
(I00
S'1 1'
p1678
(I01
I2
tp1679
(I01
I0
tp1680
tp1681
(I00
S'0 2'
p1682
(I00
S'1 2'
p1683
(I00
S'0 2'
p1684
(I00
S'0 1'
p1685
(I01
I0
tp1686
(I01
I0
tp1687
tp1688
(I01
I0
tp1689
tp1690
(I00
S'0 2'
p1691
(I01
I0
tp1692
(I01
I2
tp1693
tp1694
tp1695
(I01
I0
tp1696
tp1697
tp1698
tp1699
tp1700
(I00
S'1 1'
p1701
(I01
I1
tp1702
(I00
S'1 1'
p1703
(I00
S'0 1'
p1704
(I01
I2
tp1705
(I01
I0
tp1706
tp1707
(I00
S'0 2'
p1708
(I01
I2
tp1709
(I01
I2
tp1710
tp1711
tp1712
tp1713
tp1714
(I00
S'1 1'
p1715
(I00
S'1 1'
p1716
(I01
I0
tp1717
(I00
S'1 1'
p1718
(I01
I1
tp1719
(I00
S'1 2'
p1720
(I01
I0
tp1721
(I01
I1
tp1722
tp1723
tp1724
tp1725
(I01
I1
tp1726
tp1727
tp1728
tp1729
tp1730
bag1
(tRp1731
(S'-12.5664 12.5664 -50 50 '
p1732
I2
F0.8500000238418579
F0.10000000149011612
F0.25
(I00
S'1 1'
p1733
(I00
S'1 2'
p1734
(I00
S'1 2'
p1735
(I01
I2
tp1736
(I01
I2
tp1737
tp1738
(I00
S'0 2'
p1739
(I00
S'0 1'
p1740
(I00
S'1 2'
p1741
(I00
S'0 2'
p1742
(I01
I1
tp1743
(I00
S'1 2'
p1744
(I01
I2
tp1745
(I00
S'0 1'
p1746
(I01
I2
tp1747
(I00
S'1 2'
p1748
(I00
S'0 2'
p1749
(I01
I2
tp1750
(I01
I2
tp1751
tp1752
(I01
I2
tp1753
tp1754
tp1755
tp1756
tp1757
(I01
I0
tp1758
tp1759
(I00
S'1 2'
p1760
(I01
I2
tp1761
(I00
S'0 1'
p1762
(I01
I0
tp1763
(I00
S'1 1'
p1764
(I01
I1
tp1765
(I01
I1
tp1766
tp1767
tp1768
tp1769
tp1770
(I00
S'1 1'
p1771
(I00
S'1 2'
p1772
(I00
S'0 1'
p1773
(I01
I0
tp1774
(I00
S'1 2'
p1775
(I01
I0
tp1776
(I01
I0
tp1777
tp1778
tp1779
(I01
I2
tp1780
tp1781
(I00
S'1 2'
p1782
(I01
I1
tp1783
(I01
I0
tp1784
tp1785
tp1786
tp1787
tp1788
(I00
S'0 2'
p1789
(I00
S'1 2'
p1790
(I00
S'0 1'
p1791
(I01
I1
tp1792
(I00
S'1 2'
p1793
(I00
S'1 2'
p1794
(I00
S'1 1'
p1795
(I01
I2
tp1796
(I01
I2
tp1797
tp1798
(I00
S'1 1'
p1799
(I01
I2
tp1800
(I00
S'0 2'
p1801
(I01
I2
tp1802
(I00
S'1 2'
p1803
(I01
I0
tp1804
(I01
I0
tp1805
tp1806
tp1807
tp1808
tp1809
(I00
S'1 1'
p1810
(I00
S'1 1'
p1811
(I01
I2
tp1812
(I01
I0
tp1813
tp1814
(I00
S'0 2'
p1815
(I00
S'1 2'
p1816
(I00
S'0 2'
p1817
(I00
S'0 1'
p1818
(I01
I0
tp1819
(I01
I0
tp1820
tp1821
(I01
I0
tp1822
tp1823
(I00
S'0 2'
p1824
(I01
I0
tp1825
(I01
I2
tp1826
tp1827
tp1828
(I01
I0
tp1829
tp1830
tp1831
tp1832
tp1833
(I00
S'1 1'
p1834
(I01
I1
tp1835
(I00
S'1 1'
p1836
(I00
S'0 1'
p1837
(I01
I2
tp1838
(I01
I0
tp1839
tp1840
(I00
S'0 2'
p1841
(I01
I2
tp1842
(I01
I2
tp1843
tp1844
tp1845
tp1846
tp1847
(I00
S'1 1'
p1848
(I00
S'1 1'
p1849
(I01
I0
tp1850
(I00
S'1 1'
p1851
(I01
I1
tp1852
(I00
S'1 2'
p1853
(I01
I0
tp1854
(I01
I1
tp1855
tp1856
tp1857
tp1858
(I01
I1
tp1859
tp1860
tp1861
tp1862
tp1863
bag1
(tRp1864
(S'-12.5664 12.5664 -50 50 '
p1865
I2
F0.8500000238418579
F0.10000000149011612
F0.25
(I00
S'1 1'
p1866
(I00
S'1 2'
p1867
(I00
S'1 2'
p1868
(I01
I2
tp1869
(I01
I2
tp1870
tp1871
(I00
S'0 2'
p1872
(I00
S'0 1'
p1873
(I00
S'1 2'
p1874
(I00
S'0 2'
p1875
(I01
I1
tp1876
(I00
S'1 2'
p1877
(I01
I2
tp1878
(I00
S'0 1'
p1879
(I01
I2
tp1880
(I00
S'1 2'
p1881
(I01
I2
tp1882
(I01
I2
tp1883
tp1884
tp1885
tp1886
tp1887
(I01
I0
tp1888
tp1889
(I00
S'1 2'
p1890
(I01
I2
tp1891
(I00
S'0 1'
p1892
(I01
I0
tp1893
(I00
S'1 1'
p1894
(I01
I1
tp1895
(I01
I1
tp1896
tp1897
tp1898
tp1899
tp1900
(I00
S'1 1'
p1901
(I00
S'1 2'
p1902
(I00
S'0 1'
p1903
(I01
I0
tp1904
(I00
S'1 2'
p1905
(I01
I0
tp1906
(I01
I0
tp1907
tp1908
tp1909
(I01
I2
tp1910
tp1911
(I00
S'1 2'
p1912
(I01
I1
tp1913
(I01
I0
tp1914
tp1915
tp1916
tp1917
tp1918
(I00
S'0 2'
p1919
(I00
S'1 2'
p1920
(I00
S'0 1'
p1921
(I01
I1
tp1922
(I00
S'1 2'
p1923
(I00
S'0 2'
p1924
(I00
S'1 1'
p1925
(I01
I2
tp1926
(I01
I2
tp1927
tp1928
(I00
S'1 1'
p1929
(I01
I2
tp1930
(I00
S'0 2'
p1931
(I01
I2
tp1932
(I00
S'1 2'
p1933
(I01
I1
tp1934
(I01
I0
tp1935
tp1936
tp1937
tp1938
tp1939
(I00
S'1 1'
p1940
(I00
S'1 1'
p1941
(I01
I2
tp1942
(I01
I0
tp1943
tp1944
(I00
S'0 2'
p1945
(I00
S'1 2'
p1946
(I00
S'0 2'
p1947
(I00
S'0 1'
p1948
(I01
I0
tp1949
(I01
I0
tp1950
tp1951
(I01
I0
tp1952
tp1953
(I00
S'0 2'
p1954
(I01
I0
tp1955
(I01
I2
tp1956
tp1957
tp1958
(I01
I0
tp1959
tp1960
tp1961
tp1962
tp1963
(I00
S'1 1'
p1964
(I01
I1
tp1965
(I00
S'1 1'
p1966
(I00
S'0 1'
p1967
(I01
I2
tp1968
(I01
I0
tp1969
tp1970
(I00
S'0 2'
p1971
(I01
I2
tp1972
(I01
I2
tp1973
tp1974
tp1975
tp1976
tp1977
(I00
S'1 1'
p1978
(I00
S'1 1'
p1979
(I01
I0
tp1980
(I00
S'1 1'
p1981
(I01
I1
tp1982
(I00
S'1 2'
p1983
(I01
I0
tp1984
(I01
I1
tp1985
tp1986
tp1987
tp1988
(I01
I1
tp1989
tp1990
tp1991
tp1992
tp1993
bag1
(tRp1994
(S'-12.5664 12.5664 -50 50 '
p1995
I2
F0.8500000238418579
F0.10000000149011612
F0.25
(I00
S'1 1'
p1996
(I00
S'1 2'
p1997
(I00
S'1 2'
p1998
(I01
I2
tp1999
(I01
I2
tp2000
tp2001
(I00
S'0 2'
p2002
(I00
S'0 1'
p2003
(I00
S'1 2'
p2004
(I00
S'0 2'
p2005
(I01
I1
tp2006
(I00
S'1 2'
p2007
(I01
I2
tp2008
(I00
S'0 1'
p2009
(I01
I2
tp2010
(I00
S'1 2'
p2011
(I00
S'0 2'
p2012
(I01
I2
tp2013
(I01
I2
tp2014
tp2015
(I01
I2
tp2016
tp2017
tp2018
tp2019
tp2020
(I01
I0
tp2021
tp2022
(I00
S'1 2'
p2023
(I01
I2
tp2024
(I00
S'0 1'
p2025
(I01
I0
tp2026
(I00
S'1 1'
p2027
(I01
I1
tp2028
(I01
I1
tp2029
tp2030
tp2031
tp2032
tp2033
(I00
S'1 1'
p2034
(I00
S'1 2'
p2035
(I00
S'0 1'
p2036
(I01
I0
tp2037
(I00
S'1 2'
p2038
(I01
I0
tp2039
(I01
I0
tp2040
tp2041
tp2042
(I01
I2
tp2043
tp2044
(I00
S'1 2'
p2045
(I01
I1
tp2046
(I01
I0
tp2047
tp2048
tp2049
tp2050
tp2051
(I00
S'0 2'
p2052
(I00
S'1 2'
p2053
(I00
S'0 1'
p2054
(I01
I1
tp2055
(I00
S'1 2'
p2056
(I00
S'1 2'
p2057
(I00
S'1 1'
p2058
(I01
I2
tp2059
(I01
I2
tp2060
tp2061
(I00
S'1 1'
p2062
(I01
I2
tp2063
(I00
S'0 2'
p2064
(I01
I2
tp2065
(I00
S'1 2'
p2066
(I01
I0
tp2067
(I01
I0
tp2068
tp2069
tp2070
tp2071
tp2072
(I00
S'1 1'
p2073
(I00
S'1 1'
p2074
(I01
I2
tp2075
(I01
I0
tp2076
tp2077
(I00
S'0 2'
p2078
(I00
S'1 2'
p2079
(I00
S'0 2'
p2080
(I00
S'0 1'
p2081
(I01
I0
tp2082
(I01
I0
tp2083
tp2084
(I01
I0
tp2085
tp2086
(I00
S'0 2'
p2087
(I01
I0
tp2088
(I01
I2
tp2089
tp2090
tp2091
(I01
I0
tp2092
tp2093
tp2094
tp2095
tp2096
(I00
S'1 1'
p2097
(I01
I1
tp2098
(I00
S'1 1'
p2099
(I00
S'0 1'
p2100
(I01
I2
tp2101
(I01
I0
tp2102
tp2103
(I00
S'0 2'
p2104
(I01
I2
tp2105
(I01
I2
tp2106
tp2107
tp2108
tp2109
tp2110
(I00
S'1 1'
p2111
(I00
S'1 1'
p2112
(I01
I0
tp2113
(I00
S'1 1'
p2114
(I01
I1
tp2115
(I00
S'1 2'
p2116
(I01
I0
tp2117
(I01
I1
tp2118
tp2119
tp2120
tp2121
(I01
I1
tp2122
tp2123
tp2124
tp2125
tp2126
bag1
(tRp2127
(S'-12.5664 12.5664 -50 50 '
p2128
I2
F0.8500000238418579
F0.10000000149011612
F0.25
(I00
S'1 1'
p2129
(I00
S'1 2'
p2130
(I00
S'1 2'
p2131
(I01
I2
tp2132
(I01
I2
tp2133
tp2134
(I00
S'0 2'
p2135
(I00
S'0 1'
p2136
(I00
S'1 2'
p2137
(I00
S'0 2'
p2138
(I01
I1
tp2139
(I00
S'1 2'
p2140
(I01
I2
tp2141
(I00
S'0 1'
p2142
(I01
I2
tp2143
(I00
S'1 2'
p2144
(I00
S'0 2'
p2145
(I01
I2
tp2146
(I01
I2
tp2147
tp2148
(I01
I2
tp2149
tp2150
tp2151
tp2152
tp2153
(I01
I0
tp2154
tp2155
(I00
S'1 2'
p2156
(I01
I2
tp2157
(I00
S'0 1'
p2158
(I01
I0
tp2159
(I00
S'1 1'
p2160
(I01
I1
tp2161
(I01
I1
tp2162
tp2163
tp2164
tp2165
tp2166
(I00
S'1 1'
p2167
(I00
S'1 2'
p2168
(I00
S'0 1'
p2169
(I01
I0
tp2170
(I00
S'1 2'
p2171
(I01
I2
tp2172
(I01
I0
tp2173
tp2174
tp2175
(I01
I2
tp2176
tp2177
(I00
S'1 2'
p2178
(I01
I1
tp2179
(I01
I0
tp2180
tp2181
tp2182
tp2183
tp2184
(I00
S'0 2'
p2185
(I00
S'1 2'
p2186
(I00
S'0 1'
p2187
(I01
I1
tp2188
(I00
S'1 2'
p2189
(I00
S'1 2'
p2190
(I00
S'1 1'
p2191
(I01
I2
tp2192
(I01
I2
tp2193
tp2194
(I00
S'1 1'
p2195
(I01
I2
tp2196
(I00
S'0 2'
p2197
(I01
I2
tp2198
(I00
S'1 2'
p2199
(I01
I0
tp2200
(I01
I0
tp2201
tp2202
tp2203
tp2204
tp2205
(I00
S'1 1'
p2206
(I00
S'1 1'
p2207
(I01
I2
tp2208
(I01
I0
tp2209
tp2210
(I00
S'0 2'
p2211
(I00
S'1 2'
p2212
(I00
S'0 2'
p2213
(I00
S'0 1'
p2214
(I01
I0
tp2215
(I01
I0
tp2216
tp2217
(I01
I0
tp2218
tp2219
(I00
S'0 2'
p2220
(I01
I0
tp2221
(I01
I2
tp2222
tp2223
tp2224
(I01
I0
tp2225
tp2226
tp2227
tp2228
tp2229
(I00
S'1 1'
p2230
(I01
I1
tp2231
(I00
S'1 1'
p2232
(I00
S'0 1'
p2233
(I01
I2
tp2234
(I01
I0
tp2235
tp2236
(I00
S'0 2'
p2237
(I01
I2
tp2238
(I01
I2
tp2239
tp2240
tp2241
tp2242
tp2243
(I00
S'1 1'
p2244
(I00
S'1 1'
p2245
(I01
I0
tp2246
(I00
S'1 1'
p2247
(I01
I1
tp2248
(I00
S'1 2'
p2249
(I01
I0
tp2250
(I01
I1
tp2251
tp2252
tp2253
tp2254
(I01
I1
tp2255
tp2256
tp2257
tp2258
tp2259
bag1
(tRp2260
(S'-12.5664 12.5664 -50 50 '
p2261
I2
F0.8500000238418579
F0.10000000149011612
F0.25
(I00
S'1 1'
p2262
(I00
S'1 2'
p2263
(I00
S'1 2'
p2264
(I01
I2
tp2265
(I01
I2
tp2266
tp2267
(I00
S'0 2'
p2268
(I00
S'0 1'
p2269
(I00
S'1 2'
p2270
(I00
S'0 2'
p2271
(I01
I1
tp2272
(I00
S'1 2'
p2273
(I01
I2
tp2274
(I00
S'0 1'
p2275
(I01
I2
tp2276
(I00
S'1 2'
p2277
(I00
S'0 2'
p2278
(I01
I2
tp2279
(I01
I2
tp2280
tp2281
(I01
I2
tp2282
tp2283
tp2284
tp2285
tp2286
(I01
I0
tp2287
tp2288
(I00
S'1 2'
p2289
(I01
I2
tp2290
(I00
S'0 1'
p2291
(I01
I0
tp2292
(I00
S'1 1'
p2293
(I01
I1
tp2294
(I01
I1
tp2295
tp2296
tp2297
tp2298
tp2299
(I00
S'1 1'
p2300
(I00
S'1 2'
p2301
(I00
S'0 1'
p2302
(I01
I0
tp2303
(I00
S'1 2'
p2304
(I01
I0
tp2305
(I01
I0
tp2306
tp2307
tp2308
(I01
I2
tp2309
tp2310
(I00
S'1 2'
p2311
(I01
I1
tp2312
(I01
I0
tp2313
tp2314
tp2315
tp2316
tp2317
(I00
S'0 2'
p2318
(I00
S'1 2'
p2319
(I00
S'0 1'
p2320
(I01
I1
tp2321
(I00
S'1 2'
p2322
(I00
S'1 2'
p2323
(I00
S'1 1'
p2324
(I01
I2
tp2325
(I01
I2
tp2326
tp2327
(I00
S'1 1'
p2328
(I01
I2
tp2329
(I00
S'0 2'
p2330
(I01
I2
tp2331
(I00
S'1 2'
p2332
(I01
I0
tp2333
(I01
I0
tp2334
tp2335
tp2336
tp2337
tp2338
(I00
S'1 1'
p2339
(I00
S'1 1'
p2340
(I01
I2
tp2341
(I01
I0
tp2342
tp2343
(I00
S'0 2'
p2344
(I00
S'1 2'
p2345
(I00
S'0 2'
p2346
(I00
S'0 1'
p2347
(I01
I0
tp2348
(I01
I0
tp2349
tp2350
(I01
I0
tp2351
tp2352
(I00
S'0 2'
p2353
(I01
I0
tp2354
(I01
I2
tp2355
tp2356
tp2357
(I01
I0
tp2358
tp2359
tp2360
tp2361
tp2362
(I00
S'1 1'
p2363
(I01
I1
tp2364
(I00
S'1 1'
p2365
(I00
S'0 1'
p2366
(I01
I2
tp2367
(I01
I0
tp2368
tp2369
(I00
S'0 2'
p2370
(I01
I2
tp2371
(I01
I2
tp2372
tp2373
tp2374
tp2375
tp2376
(I00
S'1 1'
p2377
(I00
S'1 1'
p2378
(I01
I0
tp2379
(I00
S'1 1'
p2380
(I01
I1
tp2381
(I00
S'1 2'
p2382
(I01
I0
tp2383
(I01
I1
tp2384
tp2385
tp2386
tp2387
(I01
I1
tp2388
tp2389
tp2390
tp2391
tp2392
bag1
(tRp2393
(S'-12.5664 12.5664 -50 50 '
p2394
I2
F0.8500000238418579
F0.10000000149011612
F0.25
(I00
S'1 1'
p2395
(I00
S'1 2'
p2396
(I00
S'1 2'
p2397
(I01
I2
tp2398
(I01
I2
tp2399
tp2400
(I00
S'0 2'
p2401
(I00
S'0 1'
p2402
(I00
S'1 2'
p2403
(I00
S'0 2'
p2404
(I01
I1
tp2405
(I00
S'1 2'
p2406
(I01
I2
tp2407
(I00
S'0 1'
p2408
(I01
I2
tp2409
(I00
S'1 2'
p2410
(I00
S'0 2'
p2411
(I01
I2
tp2412
(I01
I2
tp2413
tp2414
(I01
I2
tp2415
tp2416
tp2417
tp2418
tp2419
(I01
I0
tp2420
tp2421
(I00
S'1 2'
p2422
(I01
I2
tp2423
(I00
S'0 1'
p2424
(I01
I0
tp2425
(I00
S'1 1'
p2426
(I01
I1
tp2427
(I01
I1
tp2428
tp2429
tp2430
tp2431
tp2432
(I00
S'1 1'
p2433
(I00
S'1 2'
p2434
(I00
S'0 1'
p2435
(I01
I0
tp2436
(I00
S'1 2'
p2437
(I01
I0
tp2438
(I01
I0
tp2439
tp2440
tp2441
(I01
I2
tp2442
tp2443
(I00
S'1 2'
p2444
(I01
I1
tp2445
(I01
I0
tp2446
tp2447
tp2448
tp2449
tp2450
(I00
S'0 2'
p2451
(I00
S'1 2'
p2452
(I00
S'0 1'
p2453
(I01
I1
tp2454
(I00
S'1 2'
p2455
(I00
S'1 2'
p2456
(I00
S'1 1'
p2457
(I01
I2
tp2458
(I01
I2
tp2459
tp2460
(I00
S'1 1'
p2461
(I01
I2
tp2462
(I00
S'0 2'
p2463
(I01
I2
tp2464
(I00
S'1 2'
p2465
(I01
I0
tp2466
(I01
I0
tp2467
tp2468
tp2469
tp2470
tp2471
(I00
S'1 1'
p2472
(I00
S'1 1'
p2473
(I01
I2
tp2474
(I01
I0
tp2475
tp2476
(I00
S'0 2'
p2477
(I00
S'1 2'
p2478
(I00
S'0 2'
p2479
(I00
S'0 1'
p2480
(I01
I0
tp2481
(I01
I0
tp2482
tp2483
(I01
I0
tp2484
tp2485
(I00
S'0 2'
p2486
(I01
I0
tp2487
(I01
I2
tp2488
tp2489
tp2490
(I01
I0
tp2491
tp2492
tp2493
tp2494
tp2495
(I00
S'1 1'
p2496
(I01
I1
tp2497
(I00
S'1 1'
p2498
(I00
S'0 1'
p2499
(I01
I2
tp2500
(I01
I0
tp2501
tp2502
(I00
S'0 2'
p2503
(I01
I2
tp2504
(I01
I2
tp2505
tp2506
tp2507
tp2508
tp2509
(I00
S'1 1'
p2510
(I00
S'1 1'
p2511
(I01
I0
tp2512
(I00
S'1 1'
p2513
(I01
I1
tp2514
(I00
S'1 2'
p2515
(I01
I0
tp2516
(I01
I1
tp2517
tp2518
tp2519
tp2520
(I01
I1
tp2521
tp2522
tp2523
tp2524
tp2525
bag1
(tRp2526
(S'-12.5664 12.5664 -50 50 '
p2527
I2
F0.8500000238418579
F0.10000000149011612
F0.25
(I00
S'1 1'
p2528
(I00
S'1 2'
p2529
(I00
S'1 2'
p2530
(I01
I2
tp2531
(I01
I2
tp2532
tp2533
(I00
S'0 2'
p2534
(I00
S'0 1'
p2535
(I00
S'1 2'
p2536
(I00
S'0 2'
p2537
(I01
I1
tp2538
(I00
S'1 2'
p2539
(I01
I2
tp2540
(I00
S'0 1'
p2541
(I01
I2
tp2542
(I00
S'1 2'
p2543
(I00
S'0 2'
p2544
(I01
I2
tp2545
(I01
I2
tp2546
tp2547
(I01
I2
tp2548
tp2549
tp2550
tp2551
tp2552
(I01
I0
tp2553
tp2554
(I00
S'1 2'
p2555
(I01
I2
tp2556
(I00
S'0 1'
p2557
(I01
I0
tp2558
(I00
S'1 1'
p2559
(I01
I1
tp2560
(I01
I1
tp2561
tp2562
tp2563
tp2564
tp2565
(I00
S'1 1'
p2566
(I00
S'1 2'
p2567
(I00
S'0 1'
p2568
(I01
I0
tp2569
(I00
S'1 2'
p2570
(I01
I0
tp2571
(I01
I0
tp2572
tp2573
tp2574
(I01
I2
tp2575
tp2576
(I00
S'1 2'
p2577
(I01
I1
tp2578
(I01
I0
tp2579
tp2580
tp2581
tp2582
tp2583
(I00
S'0 2'
p2584
(I00
S'1 2'
p2585
(I00
S'0 1'
p2586
(I01
I1
tp2587
(I00
S'1 2'
p2588
(I00
S'1 2'
p2589
(I00
S'1 1'
p2590
(I01
I2
tp2591
(I01
I2
tp2592
tp2593
(I00
S'1 1'
p2594
(I01
I2
tp2595
(I00
S'0 2'
p2596
(I01
I2
tp2597
(I00
S'1 2'
p2598
(I01
I0
tp2599
(I01
I0
tp2600
tp2601
tp2602
tp2603
tp2604
(I00
S'1 1'
p2605
(I00
S'1 1'
p2606
(I01
I2
tp2607
(I01
I0
tp2608
tp2609
(I00
S'0 2'
p2610
(I00
S'1 2'
p2611
(I00
S'0 2'
p2612
(I00
S'0 1'
p2613
(I01
I0
tp2614
(I01
I0
tp2615
tp2616
(I01
I0
tp2617
tp2618
(I00
S'0 2'
p2619
(I01
I0
tp2620
(I01
I2
tp2621
tp2622
tp2623
(I01
I0
tp2624
tp2625
tp2626
tp2627
tp2628
(I00
S'1 1'
p2629
(I01
I1
tp2630
(I00
S'1 1'
p2631
(I00
S'0 1'
p2632
(I01
I2
tp2633
(I01
I0
tp2634
tp2635
(I00
S'0 2'
p2636
(I01
I2
tp2637
(I01
I2
tp2638
tp2639
tp2640
tp2641
tp2642
(I00
S'1 1'
p2643
(I00
S'1 1'
p2644
(I01
I0
tp2645
(I00
S'1 1'
p2646
(I01
I1
tp2647
(I00
S'1 2'
p2648
(I01
I0
tp2649
(I01
I1
tp2650
tp2651
tp2652
tp2653
(I01
I1
tp2654
tp2655
tp2656
tp2657
tp2658
bag1
(tRp2659
(S'-12.5664 12.5664 -50 50 '
p2660
I2
F0.8500000238418579
F0.10000000149011612
F0.25
(I00
S'1 1'
p2661
(I00
S'1 2'
p2662
(I00
S'1 2'
p2663
(I01
I2
tp2664
(I01
I2
tp2665
tp2666
(I00
S'0 2'
p2667
(I00
S'0 1'
p2668
(I00
S'1 2'
p2669
(I00
S'0 2'
p2670
(I01
I1
tp2671
(I00
S'1 2'
p2672
(I01
I2
tp2673
(I00
S'0 1'
p2674
(I01
I2
tp2675
(I00
S'1 2'
p2676
(I00
S'0 2'
p2677
(I01
I2
tp2678
(I01
I2
tp2679
tp2680
(I01
I2
tp2681
tp2682
tp2683
tp2684
tp2685
(I01
I0
tp2686
tp2687
(I00
S'1 2'
p2688
(I01
I2
tp2689
(I00
S'0 1'
p2690
(I01
I0
tp2691
(I00
S'1 1'
p2692
(I01
I1
tp2693
(I01
I1
tp2694
tp2695
tp2696
tp2697
tp2698
(I00
S'1 1'
p2699
(I00
S'1 2'
p2700
(I00
S'0 1'
p2701
(I01
I0
tp2702
(I00
S'1 2'
p2703
(I01
I0
tp2704
(I01
I0
tp2705
tp2706
tp2707
(I01
I2
tp2708
tp2709
(I00
S'1 2'
p2710
(I01
I1
tp2711
(I01
I0
tp2712
tp2713
tp2714
tp2715
tp2716
(I00
S'0 2'
p2717
(I00
S'1 2'
p2718
(I00
S'0 1'
p2719
(I01
I1
tp2720
(I00
S'1 2'
p2721
(I00
S'1 2'
p2722
(I00
S'1 1'
p2723
(I01
I2
tp2724
(I01
I2
tp2725
tp2726
(I00
S'1 1'
p2727
(I01
I2
tp2728
(I00
S'0 2'
p2729
(I01
I2
tp2730
(I00
S'1 2'
p2731
(I01
I0
tp2732
(I01
I0
tp2733
tp2734
tp2735
tp2736
tp2737
(I00
S'1 1'
p2738
(I00
S'1 1'
p2739
(I01
I2
tp2740
(I01
I0
tp2741
tp2742
(I00
S'0 2'
p2743
(I00
S'1 2'
p2744
(I00
S'0 2'
p2745
(I00
S'0 1'
p2746
(I01
I0
tp2747
(I01
I0
tp2748
tp2749
(I01
I0
tp2750
tp2751
(I00
S'0 2'
p2752
(I01
I0
tp2753
(I01
I2
tp2754
tp2755
tp2756
(I01
I0
tp2757
tp2758
tp2759
tp2760
tp2761
(I00
S'1 1'
p2762
(I01
I1
tp2763
(I00
S'1 1'
p2764
(I00
S'0 1'
p2765
(I01
I2
tp2766
(I01
I0
tp2767
tp2768
(I00
S'0 2'
p2769
(I01
I2
tp2770
(I01
I2
tp2771
tp2772
tp2773
tp2774
tp2775
(I00
S'1 1'
p2776
(I00
S'1 1'
p2777
(I01
I0
tp2778
(I00
S'1 1'
p2779
(I01
I1
tp2780
(I00
S'1 2'
p2781
(I01
I0
tp2782
(I01
I1
tp2783
tp2784
tp2785
tp2786
(I01
I1
tp2787
tp2788
tp2789
tp2790
tp2791
bag1
(tRp2792
(S'-12.5664 12.5664 -50 50 '
p2793
I2
F0.8500000238418579
F0.10000000149011612
F0.25
(I00
S'1 1'
p2794
(I00
S'1 2'
p2795
(I00
S'1 2'
p2796
(I01
I2
tp2797
(I01
I2
tp2798
tp2799
(I00
S'0 2'
p2800
(I00
S'0 1'
p2801
(I00
S'1 2'
p2802
(I00
S'0 2'
p2803
(I01
I1
tp2804
(I00
S'1 2'
p2805
(I01
I2
tp2806
(I00
S'0 1'
p2807
(I01
I2
tp2808
(I00
S'1 2'
p2809
(I00
S'0 2'
p2810
(I01
I2
tp2811
(I01
I2
tp2812
tp2813
(I01
I2
tp2814
tp2815
tp2816
tp2817
tp2818
(I01
I0
tp2819
tp2820
(I00
S'1 2'
p2821
(I01
I2
tp2822
(I00
S'0 1'
p2823
(I01
I0
tp2824
(I00
S'1 1'
p2825
(I01
I1
tp2826
(I01
I1
tp2827
tp2828
tp2829
tp2830
tp2831
(I00
S'1 1'
p2832
(I00
S'1 2'
p2833
(I00
S'0 1'
p2834
(I01
I0
tp2835
(I00
S'1 2'
p2836
(I01
I0
tp2837
(I01
I0
tp2838
tp2839
tp2840
(I01
I2
tp2841
tp2842
(I00
S'1 2'
p2843
(I01
I1
tp2844
(I01
I0
tp2845
tp2846
tp2847
tp2848
tp2849
(I00
S'0 2'
p2850
(I00
S'1 2'
p2851
(I00
S'0 1'
p2852
(I01
I1
tp2853
(I00
S'1 2'
p2854
(I00
S'1 2'
p2855
(I00
S'1 1'
p2856
(I01
I2
tp2857
(I01
I2
tp2858
tp2859
(I00
S'1 1'
p2860
(I01
I2
tp2861
(I00
S'0 2'
p2862
(I01
I2
tp2863
(I00
S'1 2'
p2864
(I01
I0
tp2865
(I01
I0
tp2866
tp2867
tp2868
tp2869
tp2870
(I00
S'1 1'
p2871
(I00
S'1 1'
p2872
(I01
I2
tp2873
(I01
I0
tp2874
tp2875
(I00
S'0 2'
p2876
(I00
S'1 2'
p2877
(I00
S'0 2'
p2878
(I00
S'0 1'
p2879
(I01
I0
tp2880
(I01
I0
tp2881
tp2882
(I01
I0
tp2883
tp2884
(I00
S'0 2'
p2885
(I01
I0
tp2886
(I01
I2
tp2887
tp2888
tp2889
(I01
I0
tp2890
tp2891
tp2892
tp2893
tp2894
(I00
S'1 1'
p2895
(I01
I1
tp2896
(I00
S'1 1'
p2897
(I00
S'0 1'
p2898
(I01
I2
tp2899
(I01
I0
tp2900
tp2901
(I00
S'0 2'
p2902
(I01
I2
tp2903
(I01
I2
tp2904
tp2905
tp2906
tp2907
tp2908
(I00
S'1 1'
p2909
(I00
S'1 1'
p2910
(I01
I0
tp2911
(I00
S'1 1'
p2912
(I01
I1
tp2913
(I00
S'1 2'
p2914
(I01
I0
tp2915
(I01
I1
tp2916
tp2917
tp2918
tp2919
(I01
I1
tp2920
tp2921
tp2922
tp2923
tp2924
bag1
(tRp2925
(S'-12.5664 12.5664 -50 50 '
p2926
I2
F0.8500000238418579
F0.10000000149011612
F0.25
(I00
S'1 1'
p2927
(I00
S'1 2'
p2928
(I00
S'1 2'
p2929
(I01
I2
tp2930
(I01
I2
tp2931
tp2932
(I00
S'0 2'
p2933
(I00
S'0 1'
p2934
(I00
S'1 2'
p2935
(I00
S'0 2'
p2936
(I01
I1
tp2937
(I00
S'1 2'
p2938
(I01
I2
tp2939
(I00
S'0 1'
p2940
(I01
I2
tp2941
(I00
S'1 2'
p2942
(I00
S'0 2'
p2943
(I01
I2
tp2944
(I01
I2
tp2945
tp2946
(I01
I2
tp2947
tp2948
tp2949
tp2950
tp2951
(I01
I0
tp2952
tp2953
(I00
S'1 2'
p2954
(I01
I2
tp2955
(I00
S'0 1'
p2956
(I01
I0
tp2957
(I00
S'1 1'
p2958
(I01
I1
tp2959
(I01
I1
tp2960
tp2961
tp2962
tp2963
tp2964
(I00
S'1 1'
p2965
(I00
S'1 2'
p2966
(I00
S'0 1'
p2967
(I01
I0
tp2968
(I00
S'1 2'
p2969
(I01
I0
tp2970
(I01
I0
tp2971
tp2972
tp2973
(I01
I2
tp2974
tp2975
(I00
S'1 2'
p2976
(I01
I1
tp2977
(I01
I0
tp2978
tp2979
tp2980
tp2981
tp2982
(I00
S'0 2'
p2983
(I00
S'1 2'
p2984
(I00
S'0 1'
p2985
(I01
I1
tp2986
(I00
S'1 2'
p2987
(I00
S'1 2'
p2988
(I00
S'1 1'
p2989
(I01
I2
tp2990
(I01
I2
tp2991
tp2992
(I00
S'1 1'
p2993
(I01
I2
tp2994
(I00
S'0 2'
p2995
(I01
I2
tp2996
(I00
S'1 2'
p2997
(I01
I0
tp2998
(I01
I0
tp2999
tp3000
tp3001
tp3002
tp3003
(I00
S'1 1'
p3004
(I00
S'1 1'
p3005
(I01
I2
tp3006
(I01
I0
tp3007
tp3008
(I00
S'0 2'
p3009
(I00
S'1 2'
p3010
(I00
S'0 2'
p3011
(I00
S'0 1'
p3012
(I01
I0
tp3013
(I01
I0
tp3014
tp3015
(I01
I0
tp3016
tp3017
(I00
S'0 2'
p3018
(I01
I0
tp3019
(I01
I2
tp3020
tp3021
tp3022
(I01
I0
tp3023
tp3024
tp3025
tp3026
tp3027
(I00
S'1 1'
p3028
(I01
I1
tp3029
(I00
S'1 1'
p3030
(I00
S'0 1'
p3031
(I01
I2
tp3032
(I01
I0
tp3033
tp3034
(I00
S'0 2'
p3035
(I01
I2
tp3036
(I01
I2
tp3037
tp3038
tp3039
tp3040
tp3041
(I00
S'1 1'
p3042
(I00
S'1 1'
p3043
(I01
I0
tp3044
(I00
S'1 1'
p3045
(I01
I1
tp3046
(I00
S'1 2'
p3047
(I01
I0
tp3048
(I01
I1
tp3049
tp3050
tp3051
tp3052
(I01
I1
tp3053
tp3054
tp3055
tp3056
tp3057
bag1
(tRp3058
(S'-12.5664 12.5664 -50 50 '
p3059
I2
F0.8500000238418579
F0.10000000149011612
F0.25
(I00
S'1 1'
p3060
(I00
S'1 2'
p3061
(I00
S'1 2'
p3062
(I01
I2
tp3063
(I01
I2
tp3064
tp3065
(I00
S'0 2'
p3066
(I00
S'0 1'
p3067
(I00
S'1 2'
p3068
(I00
S'0 2'
p3069
(I01
I1
tp3070
(I00
S'1 2'
p3071
(I01
I2
tp3072
(I00
S'0 1'
p3073
(I01
I2
tp3074
(I00
S'1 2'
p3075
(I00
S'0 2'
p3076
(I01
I2
tp3077
(I01
I2
tp3078
tp3079
(I01
I2
tp3080
tp3081
tp3082
tp3083
tp3084
(I01
I0
tp3085
tp3086
(I00
S'1 2'
p3087
(I01
I2
tp3088
(I00
S'0 1'
p3089
(I01
I0
tp3090
(I00
S'1 1'
p3091
(I01
I1
tp3092
(I01
I1
tp3093
tp3094
tp3095
tp3096
tp3097
(I00
S'1 1'
p3098
(I00
S'1 2'
p3099
(I00
S'0 1'
p3100
(I01
I0
tp3101
(I00
S'1 2'
p3102
(I01
I0
tp3103
(I01
I0
tp3104
tp3105
tp3106
(I01
I2
tp3107
tp3108
(I00
S'1 2'
p3109
(I01
I1
tp3110
(I01
I0
tp3111
tp3112
tp3113
tp3114
tp3115
(I00
S'0 2'
p3116
(I00
S'1 2'
p3117
(I00
S'0 1'
p3118
(I01
I1
tp3119
(I00
S'1 2'
p3120
(I00
S'1 2'
p3121
(I00
S'1 1'
p3122
(I01
I2
tp3123
(I01
I2
tp3124
tp3125
(I00
S'1 1'
p3126
(I01
I2
tp3127
(I00
S'0 2'
p3128
(I01
I2
tp3129
(I00
S'1 2'
p3130
(I01
I0
tp3131
(I01
I0
tp3132
tp3133
tp3134
tp3135
tp3136
(I00
S'1 1'
p3137
(I00
S'1 1'
p3138
(I01
I2
tp3139
(I01
I0
tp3140
tp3141
(I00
S'0 2'
p3142
(I00
S'1 2'
p3143
(I00
S'0 2'
p3144
(I00
S'0 1'
p3145
(I01
I0
tp3146
(I01
I0
tp3147
tp3148
(I01
I0
tp3149
tp3150
(I00
S'0 2'
p3151
(I01
I0
tp3152
(I01
I2
tp3153
tp3154
tp3155
(I01
I0
tp3156
tp3157
tp3158
tp3159
tp3160
(I00
S'1 1'
p3161
(I01
I1
tp3162
(I00
S'1 1'
p3163
(I00
S'0 1'
p3164
(I01
I2
tp3165
(I01
I0
tp3166
tp3167
(I00
S'0 2'
p3168
(I01
I2
tp3169
(I01
I2
tp3170
tp3171
tp3172
tp3173
tp3174
(I00
S'1 1'
p3175
(I00
S'1 1'
p3176
(I01
I0
tp3177
(I00
S'1 1'
p3178
(I01
I1
tp3179
(I00
S'1 2'
p3180
(I01
I0
tp3181
(I01
I1
tp3182
tp3183
tp3184
tp3185
(I01
I1
tp3186
tp3187
tp3188
tp3189
tp3190
bag1
(tRp3191
(S'-12.5664 12.5664 -50 50 '
p3192
I2
F0.8500000238418579
F0.10000000149011612
F0.25
(I00
S'1 1'
p3193
(I00
S'1 2'
p3194
(I00
S'1 2'
p3195
(I01
I2
tp3196
(I01
I2
tp3197
tp3198
(I00
S'0 2'
p3199
(I00
S'0 1'
p3200
(I00
S'1 2'
p3201
(I00
S'0 2'
p3202
(I01
I1
tp3203
(I00
S'1 2'
p3204
(I01
I2
tp3205
(I00
S'0 1'
p3206
(I01
I2
tp3207
(I00
S'1 2'
p3208
(I00
S'0 2'
p3209
(I01
I2
tp3210
(I01
I2
tp3211
tp3212
(I01
I2
tp3213
tp3214
tp3215
tp3216
tp3217
(I01
I0
tp3218
tp3219
(I00
S'1 2'
p3220
(I01
I2
tp3221
(I00
S'0 1'
p3222
(I01
I0
tp3223
(I00
S'1 1'
p3224
(I01
I1
tp3225
(I01
I1
tp3226
tp3227
tp3228
tp3229
tp3230
(I00
S'1 1'
p3231
(I00
S'1 2'
p3232
(I00
S'0 1'
p3233
(I01
I0
tp3234
(I00
S'1 2'
p3235
(I01
I0
tp3236
(I01
I0
tp3237
tp3238
tp3239
(I01
I2
tp3240
tp3241
(I00
S'1 2'
p3242
(I01
I1
tp3243
(I01
I0
tp3244
tp3245
tp3246
tp3247
tp3248
(I00
S'0 2'
p3249
(I00
S'1 2'
p3250
(I00
S'0 1'
p3251
(I01
I1
tp3252
(I00
S'1 2'
p3253
(I00
S'1 2'
p3254
(I00
S'1 1'
p3255
(I01
I2
tp3256
(I01
I2
tp3257
tp3258
(I00
S'1 1'
p3259
(I01
I2
tp3260
(I00
S'0 2'
p3261
(I01
I2
tp3262
(I00
S'1 2'
p3263
(I01
I0
tp3264
(I01
I0
tp3265
tp3266
tp3267
tp3268
tp3269
(I00
S'1 1'
p3270
(I00
S'1 1'
p3271
(I01
I2
tp3272
(I01
I0
tp3273
tp3274
(I00
S'0 2'
p3275
(I00
S'1 2'
p3276
(I00
S'0 2'
p3277
(I00
S'0 1'
p3278
(I01
I0
tp3279
(I01
I0
tp3280
tp3281
(I01
I0
tp3282
tp3283
(I00
S'0 2'
p3284
(I01
I0
tp3285
(I01
I2
tp3286
tp3287
tp3288
(I01
I0
tp3289
tp3290
tp3291
tp3292
tp3293
(I00
S'1 1'
p3294
(I01
I1
tp3295
(I00
S'1 1'
p3296
(I00
S'0 1'
p3297
(I01
I2
tp3298
(I01
I0
tp3299
tp3300
(I00
S'0 2'
p3301
(I01
I2
tp3302
(I01
I2
tp3303
tp3304
tp3305
tp3306
tp3307
(I00
S'1 1'
p3308
(I00
S'1 1'
p3309
(I01
I0
tp3310
(I00
S'1 1'
p3311
(I01
I1
tp3312
(I00
S'1 2'
p3313
(I01
I0
tp3314
(I01
I1
tp3315
tp3316
tp3317
tp3318
(I01
I1
tp3319
tp3320
tp3321
tp3322
tp3323
bag1
(tRp3324
(S'-12.5664 12.5664 -50 50 '
p3325
I2
F0.8500000238418579
F0.10000000149011612
F0.25
(I00
S'1 1'
p3326
(I00
S'1 2'
p3327
(I00
S'1 2'
p3328
(I01
I2
tp3329
(I01
I2
tp3330
tp3331
(I00
S'0 2'
p3332
(I00
S'0 1'
p3333
(I00
S'1 2'
p3334
(I00
S'0 2'
p3335
(I01
I1
tp3336
(I00
S'1 2'
p3337
(I01
I2
tp3338
(I00
S'0 1'
p3339
(I01
I2
tp3340
(I00
S'1 2'
p3341
(I00
S'0 2'
p3342
(I01
I2
tp3343
(I01
I2
tp3344
tp3345
(I01
I2
tp3346
tp3347
tp3348
tp3349
tp3350
(I01
I0
tp3351
tp3352
(I00
S'1 2'
p3353
(I01
I2
tp3354
(I00
S'0 1'
p3355
(I01
I0
tp3356
(I00
S'1 1'
p3357
(I01
I1
tp3358
(I01
I1
tp3359
tp3360
tp3361
tp3362
tp3363
(I00
S'1 1'
p3364
(I00
S'1 2'
p3365
(I00
S'0 1'
p3366
(I01
I0
tp3367
(I00
S'1 2'
p3368
(I01
I0
tp3369
(I01
I0
tp3370
tp3371
tp3372
(I01
I2
tp3373
tp3374
(I00
S'1 2'
p3375
(I01
I1
tp3376
(I01
I0
tp3377
tp3378
tp3379
tp3380
tp3381
(I00
S'0 2'
p3382
(I00
S'1 2'
p3383
(I00
S'0 1'
p3384
(I01
I1
tp3385
(I00
S'1 2'
p3386
(I00
S'1 2'
p3387
(I00
S'1 1'
p3388
(I01
I2
tp3389
(I01
I2
tp3390
tp3391
(I00
S'1 1'
p3392
(I01
I2
tp3393
(I00
S'0 2'
p3394
(I01
I2
tp3395
(I00
S'1 2'
p3396
(I01
I0
tp3397
(I01
I0
tp3398
tp3399
tp3400
tp3401
tp3402
(I00
S'1 1'
p3403
(I00
S'1 1'
p3404
(I01
I2
tp3405
(I01
I0
tp3406
tp3407
(I00
S'0 2'
p3408
(I00
S'1 2'
p3409
(I00
S'0 2'
p3410
(I00
S'0 1'
p3411
(I01
I0
tp3412
(I01
I0
tp3413
tp3414
(I01
I0
tp3415
tp3416
(I00
S'0 2'
p3417
(I01
I0
tp3418
(I01
I2
tp3419
tp3420
tp3421
(I01
I0
tp3422
tp3423
tp3424
tp3425
tp3426
(I00
S'1 1'
p3427
(I01
I1
tp3428
(I00
S'1 1'
p3429
(I00
S'0 1'
p3430
(I01
I2
tp3431
(I01
I0
tp3432
tp3433
(I00
S'0 2'
p3434
(I01
I2
tp3435
(I01
I2
tp3436
tp3437
tp3438
tp3439
tp3440
(I00
S'1 1'
p3441
(I00
S'1 1'
p3442
(I01
I0
tp3443
(I00
S'1 1'
p3444
(I01
I1
tp3445
(I00
S'1 2'
p3446
(I01
I0
tp3447
(I01
I1
tp3448
tp3449
tp3450
tp3451
(I01
I1
tp3452
tp3453
tp3454
tp3455
tp3456
bag1
(tRp3457
(S'-12.5664 12.5664 -50 50 '
p3458
I2
F0.8500000238418579
F0.10000000149011612
F0.25
(I00
S'1 1'
p3459
(I00
S'1 2'
p3460
(I00
S'1 2'
p3461
(I01
I2
tp3462
(I01
I2
tp3463
tp3464
(I00
S'0 2'
p3465
(I00
S'0 1'
p3466
(I00
S'1 2'
p3467
(I00
S'0 2'
p3468
(I01
I1
tp3469
(I00
S'1 2'
p3470
(I01
I2
tp3471
(I00
S'0 1'
p3472
(I01
I2
tp3473
(I00
S'1 2'
p3474
(I00
S'0 2'
p3475
(I01
I2
tp3476
(I01
I2
tp3477
tp3478
(I01
I2
tp3479
tp3480
tp3481
tp3482
tp3483
(I01
I0
tp3484
tp3485
(I00
S'1 2'
p3486
(I01
I2
tp3487
(I00
S'0 1'
p3488
(I01
I0
tp3489
(I00
S'1 1'
p3490
(I01
I1
tp3491
(I01
I1
tp3492
tp3493
tp3494
tp3495
tp3496
(I00
S'1 1'
p3497
(I00
S'1 2'
p3498
(I00
S'0 1'
p3499
(I01
I0
tp3500
(I00
S'1 2'
p3501
(I01
I0
tp3502
(I01
I0
tp3503
tp3504
tp3505
(I01
I2
tp3506
tp3507
(I00
S'1 2'
p3508
(I01
I1
tp3509
(I01
I0
tp3510
tp3511
tp3512
tp3513
tp3514
(I00
S'0 2'
p3515
(I00
S'1 2'
p3516
(I00
S'0 1'
p3517
(I01
I1
tp3518
(I00
S'1 2'
p3519
(I00
S'1 2'
p3520
(I00
S'1 1'
p3521
(I01
I2
tp3522
(I01
I2
tp3523
tp3524
(I00
S'1 1'
p3525
(I01
I2
tp3526
(I00
S'0 2'
p3527
(I01
I2
tp3528
(I00
S'1 2'
p3529
(I01
I0
tp3530
(I01
I0
tp3531
tp3532
tp3533
tp3534
tp3535
(I00
S'1 1'
p3536
(I00
S'1 1'
p3537
(I01
I2
tp3538
(I01
I0
tp3539
tp3540
(I00
S'0 2'
p3541
(I00
S'1 2'
p3542
(I00
S'0 2'
p3543
(I00
S'0 1'
p3544
(I01
I0
tp3545
(I01
I0
tp3546
tp3547
(I01
I0
tp3548
tp3549
(I00
S'0 2'
p3550
(I01
I0
tp3551
(I01
I2
tp3552
tp3553
tp3554
(I01
I0
tp3555
tp3556
tp3557
tp3558
tp3559
(I00
S'1 1'
p3560
(I01
I1
tp3561
(I00
S'1 1'
p3562
(I00
S'0 1'
p3563
(I01
I2
tp3564
(I01
I0
tp3565
tp3566
(I00
S'0 2'
p3567
(I01
I2
tp3568
(I01
I2
tp3569
tp3570
tp3571
tp3572
tp3573
(I00
S'1 1'
p3574
(I00
S'1 1'
p3575
(I01
I0
tp3576
(I00
S'1 1'
p3577
(I01
I1
tp3578
(I00
S'1 2'
p3579
(I01
I0
tp3580
(I01
I1
tp3581
tp3582
tp3583
tp3584
(I01
I1
tp3585
tp3586
tp3587
tp3588
tp3589
bag1
(tRp3590
(S'-12.5664 12.5664 -50 50 '
p3591
I2
F0.8500000238418579
F0.10000000149011612
F0.25
(I00
S'1 1'
p3592
(I00
S'1 2'
p3593
(I00
S'1 2'
p3594
(I01
I2
tp3595
(I01
I2
tp3596
tp3597
(I00
S'0 2'
p3598
(I00
S'0 1'
p3599
(I00
S'1 2'
p3600
(I00
S'0 2'
p3601
(I01
I1
tp3602
(I00
S'1 2'
p3603
(I01
I2
tp3604
(I00
S'0 1'
p3605
(I01
I2
tp3606
(I00
S'1 2'
p3607
(I00
S'0 2'
p3608
(I01
I2
tp3609
(I01
I2
tp3610
tp3611
(I01
I2
tp3612
tp3613
tp3614
tp3615
tp3616
(I01
I0
tp3617
tp3618
(I00
S'1 2'
p3619
(I01
I2
tp3620
(I00
S'0 1'
p3621
(I01
I0
tp3622
(I00
S'1 1'
p3623
(I01
I1
tp3624
(I01
I1
tp3625
tp3626
tp3627
tp3628
tp3629
(I00
S'1 1'
p3630
(I00
S'1 2'
p3631
(I00
S'0 1'
p3632
(I01
I0
tp3633
(I00
S'1 2'
p3634
(I01
I0
tp3635
(I01
I0
tp3636
tp3637
tp3638
(I01
I2
tp3639
tp3640
(I00
S'1 2'
p3641
(I01
I1
tp3642
(I01
I0
tp3643
tp3644
tp3645
tp3646
tp3647
(I00
S'0 2'
p3648
(I00
S'1 2'
p3649
(I00
S'0 1'
p3650
(I01
I1
tp3651
(I00
S'1 2'
p3652
(I00
S'1 2'
p3653
(I00
S'1 1'
p3654
(I01
I2
tp3655
(I01
I2
tp3656
tp3657
(I00
S'1 1'
p3658
(I01
I2
tp3659
(I00
S'0 2'
p3660
(I01
I2
tp3661
(I00
S'1 2'
p3662
(I01
I0
tp3663
(I01
I0
tp3664
tp3665
tp3666
tp3667
tp3668
(I00
S'1 1'
p3669
(I00
S'1 1'
p3670
(I01
I2
tp3671
(I01
I0
tp3672
tp3673
(I00
S'0 2'
p3674
(I00
S'1 2'
p3675
(I00
S'0 2'
p3676
(I00
S'0 1'
p3677
(I01
I0
tp3678
(I01
I0
tp3679
tp3680
(I01
I0
tp3681
tp3682
(I00
S'0 2'
p3683
(I01
I0
tp3684
(I01
I2
tp3685
tp3686
tp3687
(I01
I0
tp3688
tp3689
tp3690
tp3691
tp3692
(I00
S'1 1'
p3693
(I01
I1
tp3694
(I00
S'1 1'
p3695
(I00
S'0 1'
p3696
(I01
I2
tp3697
(I01
I0
tp3698
tp3699
(I00
S'0 2'
p3700
(I01
I2
tp3701
(I01
I2
tp3702
tp3703
tp3704
tp3705
tp3706
(I00
S'1 1'
p3707
(I00
S'1 1'
p3708
(I01
I0
tp3709
(I00
S'1 1'
p3710
(I01
I1
tp3711
(I00
S'1 2'
p3712
(I01
I0
tp3713
(I01
I1
tp3714
tp3715
tp3716
tp3717
(I01
I1
tp3718
tp3719
tp3720
tp3721
tp3722
bag1
(tRp3723
(S'-12.5664 12.5664 -50 50 '
p3724
I2
F0.8500000238418579
F0.10000000149011612
F0.25
(I00
S'1 1'
p3725
(I00
S'1 2'
p3726
(I00
S'1 2'
p3727
(I01
I2
tp3728
(I01
I2
tp3729
tp3730
(I00
S'0 2'
p3731
(I00
S'0 1'
p3732
(I00
S'1 2'
p3733
(I00
S'0 2'
p3734
(I01
I1
tp3735
(I00
S'1 2'
p3736
(I01
I2
tp3737
(I00
S'0 1'
p3738
(I01
I2
tp3739
(I00
S'1 2'
p3740
(I00
S'0 2'
p3741
(I01
I2
tp3742
(I01
I2
tp3743
tp3744
(I01
I2
tp3745
tp3746
tp3747
tp3748
tp3749
(I01
I0
tp3750
tp3751
(I00
S'1 2'
p3752
(I01
I2
tp3753
(I00
S'0 1'
p3754
(I01
I0
tp3755
(I00
S'1 1'
p3756
(I01
I1
tp3757
(I01
I1
tp3758
tp3759
tp3760
tp3761
tp3762
(I00
S'1 1'
p3763
(I00
S'1 2'
p3764
(I00
S'0 1'
p3765
(I01
I0
tp3766
(I00
S'1 2'
p3767
(I01
I0
tp3768
(I01
I0
tp3769
tp3770
tp3771
(I01
I2
tp3772
tp3773
(I00
S'1 2'
p3774
(I01
I1
tp3775
(I01
I0
tp3776
tp3777
tp3778
tp3779
tp3780
(I00
S'0 2'
p3781
(I00
S'1 2'
p3782
(I00
S'0 1'
p3783
(I01
I1
tp3784
(I00
S'1 2'
p3785
(I00
S'1 2'
p3786
(I00
S'1 1'
p3787
(I01
I2
tp3788
(I01
I2
tp3789
tp3790
(I00
S'1 1'
p3791
(I01
I2
tp3792
(I00
S'0 2'
p3793
(I01
I2
tp3794
(I00
S'1 2'
p3795
(I01
I0
tp3796
(I01
I0
tp3797
tp3798
tp3799
tp3800
tp3801
(I00
S'1 1'
p3802
(I00
S'1 1'
p3803
(I01
I2
tp3804
(I01
I0
tp3805
tp3806
(I00
S'0 2'
p3807
(I00
S'1 2'
p3808
(I00
S'0 2'
p3809
(I00
S'0 1'
p3810
(I01
I0
tp3811
(I01
I0
tp3812
tp3813
(I01
I0
tp3814
tp3815
(I00
S'0 2'
p3816
(I01
I0
tp3817
(I01
I2
tp3818
tp3819
tp3820
(I01
I0
tp3821
tp3822
tp3823
tp3824
tp3825
(I00
S'1 1'
p3826
(I01
I1
tp3827
(I00
S'1 1'
p3828
(I00
S'0 1'
p3829
(I01
I2
tp3830
(I01
I0
tp3831
tp3832
(I00
S'0 2'
p3833
(I01
I2
tp3834
(I01
I2
tp3835
tp3836
tp3837
tp3838
tp3839
(I00
S'1 1'
p3840
(I00
S'1 1'
p3841
(I01
I0
tp3842
(I00
S'1 1'
p3843
(I01
I1
tp3844
(I00
S'1 2'
p3845
(I01
I0
tp3846
(I01
I1
tp3847
tp3848
tp3849
tp3850
(I01
I1
tp3851
tp3852
tp3853
tp3854
tp3855
bag1
(tRp3856
(S'-12.5664 12.5664 -50 50 '
p3857
I2
F0.8500000238418579
F0.10000000149011612
F0.25
(I00
S'1 1'
p3858
(I00
S'1 2'
p3859
(I00
S'1 2'
p3860
(I01
I2
tp3861
(I01
I2
tp3862
tp3863
(I00
S'0 2'
p3864
(I00
S'0 1'
p3865
(I00
S'1 2'
p3866
(I00
S'0 2'
p3867
(I01
I1
tp3868
(I00
S'1 2'
p3869
(I01
I2
tp3870
(I00
S'0 1'
p3871
(I01
I2
tp3872
(I00
S'1 2'
p3873
(I00
S'0 2'
p3874
(I01
I2
tp3875
(I01
I2
tp3876
tp3877
(I01
I2
tp3878
tp3879
tp3880
tp3881
tp3882
(I01
I0
tp3883
tp3884
(I00
S'1 2'
p3885
(I01
I2
tp3886
(I00
S'0 1'
p3887
(I01
I0
tp3888
(I00
S'1 1'
p3889
(I01
I1
tp3890
(I01
I1
tp3891
tp3892
tp3893
tp3894
tp3895
(I00
S'1 1'
p3896
(I00
S'1 2'
p3897
(I00
S'0 1'
p3898
(I01
I0
tp3899
(I00
S'1 2'
p3900
(I01
I0
tp3901
(I01
I0
tp3902
tp3903
tp3904
(I01
I2
tp3905
tp3906
(I00
S'1 2'
p3907
(I01
I1
tp3908
(I01
I0
tp3909
tp3910
tp3911
tp3912
tp3913
(I00
S'0 2'
p3914
(I00
S'1 2'
p3915
(I00
S'0 1'
p3916
(I01
I1
tp3917
(I00
S'1 2'
p3918
(I00
S'1 2'
p3919
(I00
S'1 1'
p3920
(I01
I2
tp3921
(I01
I2
tp3922
tp3923
(I00
S'1 1'
p3924
(I01
I2
tp3925
(I00
S'0 2'
p3926
(I01
I2
tp3927
(I00
S'1 2'
p3928
(I01
I0
tp3929
(I01
I0
tp3930
tp3931
tp3932
tp3933
tp3934
(I00
S'1 1'
p3935
(I00
S'1 1'
p3936
(I01
I2
tp3937
(I01
I0
tp3938
tp3939
(I00
S'0 2'
p3940
(I00
S'1 2'
p3941
(I00
S'0 2'
p3942
(I00
S'0 1'
p3943
(I01
I0
tp3944
(I01
I0
tp3945
tp3946
(I01
I0
tp3947
tp3948
(I00
S'0 2'
p3949
(I01
I0
tp3950
(I01
I2
tp3951
tp3952
tp3953
(I01
I0
tp3954
tp3955
tp3956
tp3957
tp3958
(I00
S'1 1'
p3959
(I01
I1
tp3960
(I00
S'1 1'
p3961
(I00
S'0 1'
p3962
(I01
I2
tp3963
(I01
I0
tp3964
tp3965
(I00
S'0 2'
p3966
(I01
I2
tp3967
(I01
I2
tp3968
tp3969
tp3970
tp3971
tp3972
(I00
S'1 1'
p3973
(I00
S'1 1'
p3974
(I01
I0
tp3975
(I00
S'1 1'
p3976
(I01
I1
tp3977
(I00
S'1 2'
p3978
(I01
I0
tp3979
(I01
I1
tp3980
tp3981
tp3982
tp3983
(I01
I1
tp3984
tp3985
tp3986
tp3987
tp3988
bag1
(tRp3989
(S'-12.5664 12.5664 -50 50 '
p3990
I2
F0.8500000238418579
F0.10000000149011612
F0.25
(I00
S'1 1'
p3991
(I00
S'1 2'
p3992
(I00
S'1 2'
p3993
(I01
I2
tp3994
(I01
I2
tp3995
tp3996
(I00
S'0 2'
p3997
(I00
S'0 1'
p3998
(I00
S'1 2'
p3999
(I00
S'0 2'
p4000
(I01
I1
tp4001
(I00
S'1 2'
p4002
(I01
I2
tp4003
(I00
S'0 1'
p4004
(I01
I2
tp4005
(I00
S'1 2'
p4006
(I00
S'0 2'
p4007
(I01
I2
tp4008
(I01
I2
tp4009
tp4010
(I01
I2
tp4011
tp4012
tp4013
tp4014
tp4015
(I01
I0
tp4016
tp4017
(I00
S'1 2'
p4018
(I01
I2
tp4019
(I00
S'0 1'
p4020
(I01
I0
tp4021
(I00
S'1 1'
p4022
(I01
I1
tp4023
(I01
I1
tp4024
tp4025
tp4026
tp4027
tp4028
(I00
S'1 1'
p4029
(I00
S'1 2'
p4030
(I00
S'0 1'
p4031
(I01
I0
tp4032
(I00
S'1 2'
p4033
(I01
I0
tp4034
(I01
I0
tp4035
tp4036
tp4037
(I01
I2
tp4038
tp4039
(I00
S'1 2'
p4040
(I01
I1
tp4041
(I01
I0
tp4042
tp4043
tp4044
tp4045
tp4046
(I00
S'0 2'
p4047
(I00
S'1 2'
p4048
(I00
S'0 1'
p4049
(I01
I1
tp4050
(I00
S'1 2'
p4051
(I00
S'1 2'
p4052
(I00
S'1 1'
p4053
(I01
I2
tp4054
(I01
I2
tp4055
tp4056
(I00
S'1 1'
p4057
(I01
I2
tp4058
(I00
S'0 2'
p4059
(I01
I2
tp4060
(I00
S'1 2'
p4061
(I01
I0
tp4062
(I01
I0
tp4063
tp4064
tp4065
tp4066
tp4067
(I00
S'1 1'
p4068
(I00
S'1 1'
p4069
(I01
I2
tp4070
(I01
I0
tp4071
tp4072
(I00
S'0 2'
p4073
(I00
S'1 2'
p4074
(I00
S'0 2'
p4075
(I00
S'0 1'
p4076
(I01
I0
tp4077
(I01
I0
tp4078
tp4079
(I01
I0
tp4080
tp4081
(I00
S'0 2'
p4082
(I01
I0
tp4083
(I01
I2
tp4084
tp4085
tp4086
(I01
I0
tp4087
tp4088
tp4089
tp4090
tp4091
(I00
S'1 1'
p4092
(I01
I1
tp4093
(I00
S'1 1'
p4094
(I00
S'0 1'
p4095
(I01
I2
tp4096
(I01
I0
tp4097
tp4098
(I00
S'0 2'
p4099
(I01
I2
tp4100
(I01
I2
tp4101
tp4102
tp4103
tp4104
tp4105
(I00
S'1 1'
p4106
(I00
S'1 1'
p4107
(I01
I0
tp4108
(I00
S'1 1'
p4109
(I01
I1
tp4110
(I00
S'1 2'
p4111
(I01
I0
tp4112
(I01
I1
tp4113
tp4114
tp4115
tp4116
(I01
I1
tp4117
tp4118
tp4119
tp4120
tp4121
bag1
(tRp4122
(S'-12.5664 12.5664 -50 50 '
p4123
I2
F0.8500000238418579
F0.10000000149011612
F0.25
(I00
S'1 1'
p4124
(I00
S'1 2'
p4125
(I00
S'1 2'
p4126
(I01
I2
tp4127
(I01
I2
tp4128
tp4129
(I00
S'0 2'
p4130
(I00
S'0 1'
p4131
(I00
S'1 2'
p4132
(I00
S'0 2'
p4133
(I01
I1
tp4134
(I00
S'1 2'
p4135
(I01
I2
tp4136
(I00
S'0 1'
p4137
(I01
I2
tp4138
(I00
S'1 2'
p4139
(I00
S'0 2'
p4140
(I01
I2
tp4141
(I01
I2
tp4142
tp4143
(I01
I2
tp4144
tp4145
tp4146
tp4147
tp4148
(I01
I0
tp4149
tp4150
(I00
S'1 2'
p4151
(I01
I2
tp4152
(I00
S'0 1'
p4153
(I01
I0
tp4154
(I00
S'1 1'
p4155
(I01
I1
tp4156
(I01
I1
tp4157
tp4158
tp4159
tp4160
tp4161
(I00
S'1 1'
p4162
(I00
S'1 2'
p4163
(I00
S'0 1'
p4164
(I01
I0
tp4165
(I00
S'1 2'
p4166
(I01
I0
tp4167
(I01
I0
tp4168
tp4169
tp4170
(I01
I2
tp4171
tp4172
(I00
S'1 2'
p4173
(I01
I1
tp4174
(I01
I0
tp4175
tp4176
tp4177
tp4178
tp4179
(I00
S'0 2'
p4180
(I00
S'1 2'
p4181
(I00
S'0 1'
p4182
(I01
I1
tp4183
(I00
S'1 2'
p4184
(I00
S'1 2'
p4185
(I00
S'1 1'
p4186
(I01
I2
tp4187
(I01
I2
tp4188
tp4189
(I00
S'1 1'
p4190
(I01
I2
tp4191
(I00
S'0 2'
p4192
(I01
I2
tp4193
(I00
S'1 2'
p4194
(I01
I0
tp4195
(I01
I0
tp4196
tp4197
tp4198
tp4199
tp4200
(I00
S'1 1'
p4201
(I00
S'1 1'
p4202
(I01
I2
tp4203
(I01
I0
tp4204
tp4205
(I00
S'0 2'
p4206
(I00
S'1 2'
p4207
(I00
S'0 2'
p4208
(I00
S'0 1'
p4209
(I01
I0
tp4210
(I01
I0
tp4211
tp4212
(I01
I0
tp4213
tp4214
(I00
S'0 2'
p4215
(I01
I0
tp4216
(I01
I2
tp4217
tp4218
tp4219
(I01
I0
tp4220
tp4221
tp4222
tp4223
tp4224
(I00
S'1 1'
p4225
(I01
I1
tp4226
(I00
S'1 1'
p4227
(I00
S'0 1'
p4228
(I01
I2
tp4229
(I01
I0
tp4230
tp4231
(I00
S'0 2'
p4232
(I01
I2
tp4233
(I01
I2
tp4234
tp4235
tp4236
tp4237
tp4238
(I00
S'1 1'
p4239
(I00
S'1 1'
p4240
(I01
I0
tp4241
(I00
S'1 1'
p4242
(I01
I1
tp4243
(I00
S'1 2'
p4244
(I01
I0
tp4245
(I01
I1
tp4246
tp4247
tp4248
tp4249
(I01
I1
tp4250
tp4251
tp4252
tp4253
tp4254
bag1
(tRp4255
(S'-12.5664 12.5664 -50 50 '
p4256
I2
F0.8500000238418579
F0.10000000149011612
F0.25
(I00
S'1 1'
p4257
(I00
S'1 2'
p4258
(I00
S'1 2'
p4259
(I01
I2
tp4260
(I01
I2
tp4261
tp4262
(I00
S'0 2'
p4263
(I00
S'0 1'
p4264
(I00
S'1 2'
p4265
(I00
S'0 2'
p4266
(I01
I1
tp4267
(I00
S'1 2'
p4268
(I01
I2
tp4269
(I00
S'0 1'
p4270
(I01
I2
tp4271
(I00
S'1 2'
p4272
(I00
S'0 2'
p4273
(I01
I2
tp4274
(I01
I2
tp4275
tp4276
(I01
I2
tp4277
tp4278
tp4279
tp4280
tp4281
(I01
I0
tp4282
tp4283
(I00
S'1 2'
p4284
(I01
I2
tp4285
(I00
S'0 1'
p4286
(I01
I0
tp4287
(I00
S'1 1'
p4288
(I01
I1
tp4289
(I01
I1
tp4290
tp4291
tp4292
tp4293
tp4294
(I00
S'1 1'
p4295
(I00
S'1 2'
p4296
(I00
S'0 1'
p4297
(I01
I0
tp4298
(I00
S'1 2'
p4299
(I01
I0
tp4300
(I01
I0
tp4301
tp4302
tp4303
(I01
I2
tp4304
tp4305
(I00
S'1 2'
p4306
(I01
I1
tp4307
(I01
I0
tp4308
tp4309
tp4310
tp4311
tp4312
(I00
S'0 2'
p4313
(I00
S'1 2'
p4314
(I00
S'0 1'
p4315
(I01
I2
tp4316
(I00
S'1 2'
p4317
(I00
S'1 2'
p4318
(I00
S'1 1'
p4319
(I01
I2
tp4320
(I01
I2
tp4321
tp4322
(I00
S'1 1'
p4323
(I01
I2
tp4324
(I00
S'0 2'
p4325
(I01
I2
tp4326
(I00
S'1 2'
p4327
(I01
I0
tp4328
(I01
I0
tp4329
tp4330
tp4331
tp4332
tp4333
(I00
S'1 1'
p4334
(I00
S'1 1'
p4335
(I01
I2
tp4336
(I01
I0
tp4337
tp4338
(I00
S'0 2'
p4339
(I00
S'1 2'
p4340
(I00
S'0 2'
p4341
(I00
S'0 1'
p4342
(I01
I0
tp4343
(I01
I0
tp4344
tp4345
(I01
I0
tp4346
tp4347
(I00
S'0 2'
p4348
(I01
I0
tp4349
(I01
I2
tp4350
tp4351
tp4352
(I01
I0
tp4353
tp4354
tp4355
tp4356
tp4357
(I00
S'1 1'
p4358
(I01
I1
tp4359
(I00
S'1 1'
p4360
(I00
S'0 1'
p4361
(I01
I2
tp4362
(I01
I0
tp4363
tp4364
(I00
S'0 2'
p4365
(I01
I2
tp4366
(I01
I2
tp4367
tp4368
tp4369
tp4370
tp4371
(I00
S'1 1'
p4372
(I00
S'1 1'
p4373
(I01
I0
tp4374
(I00
S'1 1'
p4375
(I01
I1
tp4376
(I00
S'1 2'
p4377
(I01
I0
tp4378
(I01
I1
tp4379
tp4380
tp4381
tp4382
(I01
I1
tp4383
tp4384
tp4385
tp4386
tp4387
bag1
(tRp4388
(S'-12.5664 12.5664 -50 50 '
p4389
I2
F0.8500000238418579
F0.10000000149011612
F0.25
(I00
S'1 1'
p4390
(I00
S'1 2'
p4391
(I00
S'1 2'
p4392
(I01
I2
tp4393
(I01
I2
tp4394
tp4395
(I00
S'0 2'
p4396
(I00
S'0 1'
p4397
(I00
S'1 2'
p4398
(I00
S'0 2'
p4399
(I01
I1
tp4400
(I00
S'1 2'
p4401
(I01
I2
tp4402
(I00
S'0 1'
p4403
(I01
I2
tp4404
(I00
S'1 2'
p4405
(I00
S'0 2'
p4406
(I01
I2
tp4407
(I01
I2
tp4408
tp4409
(I01
I2
tp4410
tp4411
tp4412
tp4413
tp4414
(I01
I0
tp4415
tp4416
(I00
S'1 2'
p4417
(I01
I2
tp4418
(I00
S'0 1'
p4419
(I01
I0
tp4420
(I00
S'1 1'
p4421
(I01
I1
tp4422
(I01
I1
tp4423
tp4424
tp4425
tp4426
tp4427
(I00
S'1 1'
p4428
(I00
S'1 2'
p4429
(I00
S'0 1'
p4430
(I01
I0
tp4431
(I00
S'1 2'
p4432
(I01
I0
tp4433
(I01
I0
tp4434
tp4435
tp4436
(I01
I2
tp4437
tp4438
(I00
S'1 2'
p4439
(I01
I1
tp4440
(I01
I0
tp4441
tp4442
tp4443
tp4444
tp4445
(I00
S'0 2'
p4446
(I00
S'1 2'
p4447
(I00
S'0 1'
p4448
(I01
I1
tp4449
(I00
S'1 2'
p4450
(I00
S'1 2'
p4451
(I00
S'1 1'
p4452
(I01
I2
tp4453
(I01
I2
tp4454
tp4455
(I00
S'1 1'
p4456
(I01
I2
tp4457
(I00
S'0 2'
p4458
(I01
I2
tp4459
(I00
S'1 2'
p4460
(I01
I0
tp4461
(I01
I0
tp4462
tp4463
tp4464
tp4465
tp4466
(I00
S'1 1'
p4467
(I00
S'1 1'
p4468
(I01
I2
tp4469
(I01
I0
tp4470
tp4471
(I00
S'0 2'
p4472
(I00
S'1 2'
p4473
(I00
S'0 2'
p4474
(I00
S'0 1'
p4475
(I01
I0
tp4476
(I01
I0
tp4477
tp4478
(I01
I0
tp4479
tp4480
(I00
S'0 2'
p4481
(I01
I0
tp4482
(I01
I2
tp4483
tp4484
tp4485
(I01
I0
tp4486
tp4487
tp4488
tp4489
tp4490
(I00
S'1 1'
p4491
(I01
I1
tp4492
(I00
S'1 1'
p4493
(I00
S'0 1'
p4494
(I01
I2
tp4495
(I01
I0
tp4496
tp4497
(I00
S'0 2'
p4498
(I01
I2
tp4499
(I01
I2
tp4500
tp4501
tp4502
tp4503
tp4504
(I00
S'1 1'
p4505
(I00
S'1 1'
p4506
(I01
I0
tp4507
(I00
S'1 1'
p4508
(I01
I1
tp4509
(I00
S'1 2'
p4510
(I01
I0
tp4511
(I01
I1
tp4512
tp4513
tp4514
tp4515
(I01
I1
tp4516
tp4517
tp4518
tp4519
tp4520
bag1
(tRp4521
(S'-12.5664 12.5664 -50 50 '
p4522
I2
F0.8500000238418579
F0.10000000149011612
F0.25
(I00
S'1 1'
p4523
(I00
S'1 2'
p4524
(I00
S'1 2'
p4525
(I01
I2
tp4526
(I01
I2
tp4527
tp4528
(I00
S'0 2'
p4529
(I00
S'0 1'
p4530
(I00
S'1 2'
p4531
(I00
S'0 2'
p4532
(I01
I1
tp4533
(I00
S'1 2'
p4534
(I01
I2
tp4535
(I00
S'0 1'
p4536
(I01
I2
tp4537
(I00
S'1 2'
p4538
(I00
S'0 2'
p4539
(I01
I2
tp4540
(I01
I2
tp4541
tp4542
(I01
I2
tp4543
tp4544
tp4545
tp4546
tp4547
(I01
I0
tp4548
tp4549
(I00
S'1 2'
p4550
(I01
I2
tp4551
(I00
S'0 1'
p4552
(I01
I0
tp4553
(I00
S'1 1'
p4554
(I01
I1
tp4555
(I01
I1
tp4556
tp4557
tp4558
tp4559
tp4560
(I00
S'1 1'
p4561
(I00
S'1 2'
p4562
(I00
S'0 1'
p4563
(I01
I0
tp4564
(I00
S'1 2'
p4565
(I01
I0
tp4566
(I01
I0
tp4567
tp4568
tp4569
(I01
I2
tp4570
tp4571
(I00
S'1 2'
p4572
(I01
I1
tp4573
(I01
I0
tp4574
tp4575
tp4576
tp4577
tp4578
(I00
S'0 2'
p4579
(I00
S'1 2'
p4580
(I00
S'0 1'
p4581
(I01
I1
tp4582
(I00
S'1 2'
p4583
(I00
S'1 2'
p4584
(I00
S'1 1'
p4585
(I01
I2
tp4586
(I01
I2
tp4587
tp4588
(I00
S'1 1'
p4589
(I01
I2
tp4590
(I00
S'0 2'
p4591
(I01
I2
tp4592
(I00
S'1 2'
p4593
(I01
I0
tp4594
(I01
I0
tp4595
tp4596
tp4597
tp4598
tp4599
(I00
S'1 1'
p4600
(I00
S'1 1'
p4601
(I01
I2
tp4602
(I01
I0
tp4603
tp4604
(I00
S'0 2'
p4605
(I00
S'1 2'
p4606
(I00
S'0 2'
p4607
(I00
S'0 1'
p4608
(I01
I0
tp4609
(I01
I0
tp4610
tp4611
(I01
I0
tp4612
tp4613
(I00
S'0 2'
p4614
(I01
I0
tp4615
(I01
I2
tp4616
tp4617
tp4618
(I01
I0
tp4619
tp4620
tp4621
tp4622
tp4623
(I00
S'1 1'
p4624
(I01
I1
tp4625
(I00
S'1 1'
p4626
(I00
S'0 1'
p4627
(I01
I2
tp4628
(I01
I0
tp4629
tp4630
(I00
S'0 2'
p4631
(I01
I2
tp4632
(I01
I2
tp4633
tp4634
tp4635
tp4636
tp4637
(I00
S'1 1'
p4638
(I00
S'1 1'
p4639
(I01
I0
tp4640
(I00
S'1 1'
p4641
(I01
I1
tp4642
(I00
S'1 2'
p4643
(I01
I0
tp4644
(I01
I1
tp4645
tp4646
tp4647
tp4648
(I01
I1
tp4649
tp4650
tp4651
tp4652
tp4653
bag1
(tRp4654
(S'-12.5664 12.5664 -50 50 '
p4655
I2
F0.8500000238418579
F0.10000000149011612
F0.25
(I00
S'1 1'
p4656
(I00
S'1 2'
p4657
(I00
S'1 2'
p4658
(I01
I2
tp4659
(I01
I2
tp4660
tp4661
(I00
S'0 2'
p4662
(I00
S'0 1'
p4663
(I00
S'1 2'
p4664
(I00
S'0 2'
p4665
(I01
I1
tp4666
(I00
S'1 2'
p4667
(I01
I2
tp4668
(I00
S'0 1'
p4669
(I01
I2
tp4670
(I00
S'1 2'
p4671
(I00
S'0 2'
p4672
(I01
I2
tp4673
(I01
I2
tp4674
tp4675
(I01
I2
tp4676
tp4677
tp4678
tp4679
tp4680
(I01
I0
tp4681
tp4682
(I00
S'1 2'
p4683
(I01
I2
tp4684
(I00
S'0 1'
p4685
(I01
I0
tp4686
(I00
S'1 1'
p4687
(I01
I1
tp4688
(I01
I1
tp4689
tp4690
tp4691
tp4692
tp4693
(I00
S'1 1'
p4694
(I00
S'1 2'
p4695
(I00
S'0 1'
p4696
(I01
I0
tp4697
(I00
S'1 2'
p4698
(I01
I0
tp4699
(I01
I0
tp4700
tp4701
tp4702
(I01
I2
tp4703
tp4704
(I00
S'1 2'
p4705
(I01
I1
tp4706
(I01
I0
tp4707
tp4708
tp4709
tp4710
tp4711
(I00
S'0 2'
p4712
(I00
S'1 2'
p4713
(I00
S'0 1'
p4714
(I01
I1
tp4715
(I00
S'1 2'
p4716
(I00
S'1 2'
p4717
(I00
S'1 1'
p4718
(I01
I2
tp4719
(I01
I2
tp4720
tp4721
(I00
S'1 1'
p4722
(I01
I2
tp4723
(I00
S'0 2'
p4724
(I01
I2
tp4725
(I00
S'1 2'
p4726
(I01
I0
tp4727
(I01
I0
tp4728
tp4729
tp4730
tp4731
tp4732
(I00
S'1 1'
p4733
(I00
S'1 1'
p4734
(I01
I2
tp4735
(I01
I0
tp4736
tp4737
(I00
S'0 2'
p4738
(I00
S'1 2'
p4739
(I00
S'0 2'
p4740
(I00
S'0 1'
p4741
(I01
I0
tp4742
(I01
I0
tp4743
tp4744
(I01
I0
tp4745
tp4746
(I00
S'0 2'
p4747
(I01
I0
tp4748
(I01
I2
tp4749
tp4750
tp4751
(I01
I0
tp4752
tp4753
tp4754
tp4755
tp4756
(I00
S'1 1'
p4757
(I01
I1
tp4758
(I00
S'1 1'
p4759
(I00
S'0 1'
p4760
(I01
I2
tp4761
(I01
I0
tp4762
tp4763
(I00
S'0 2'
p4764
(I01
I2
tp4765
(I01
I2
tp4766
tp4767
tp4768
tp4769
tp4770
(I00
S'1 1'
p4771
(I00
S'1 1'
p4772
(I01
I0
tp4773
(I00
S'1 1'
p4774
(I01
I1
tp4775
(I00
S'1 2'
p4776
(I01
I0
tp4777
(I01
I1
tp4778
tp4779
tp4780
tp4781
(I01
I1
tp4782
tp4783
tp4784
tp4785
tp4786
bag1
(tRp4787
(S'-12.5664 12.5664 -50 50 '
p4788
I2
F0.8500000238418579
F0.10000000149011612
F0.25
(I00
S'1 1'
p4789
(I00
S'1 2'
p4790
(I00
S'1 2'
p4791
(I01
I2
tp4792
(I01
I2
tp4793
tp4794
(I00
S'0 2'
p4795
(I00
S'0 1'
p4796
(I00
S'1 2'
p4797
(I00
S'0 2'
p4798
(I01
I1
tp4799
(I00
S'1 2'
p4800
(I01
I2
tp4801
(I00
S'0 1'
p4802
(I01
I2
tp4803
(I00
S'1 2'
p4804
(I00
S'0 2'
p4805
(I01
I2
tp4806
(I01
I2
tp4807
tp4808
(I01
I2
tp4809
tp4810
tp4811
tp4812
tp4813
(I01
I0
tp4814
tp4815
(I00
S'1 2'
p4816
(I01
I2
tp4817
(I00
S'0 1'
p4818
(I01
I0
tp4819
(I00
S'1 1'
p4820
(I01
I1
tp4821
(I01
I1
tp4822
tp4823
tp4824
tp4825
tp4826
(I00
S'1 1'
p4827
(I00
S'1 2'
p4828
(I00
S'0 1'
p4829
(I01
I0
tp4830
(I00
S'1 2'
p4831
(I01
I0
tp4832
(I01
I0
tp4833
tp4834
tp4835
(I01
I2
tp4836
tp4837
(I00
S'1 2'
p4838
(I01
I1
tp4839
(I01
I0
tp4840
tp4841
tp4842
tp4843
tp4844
(I00
S'0 2'
p4845
(I00
S'1 2'
p4846
(I00
S'0 1'
p4847
(I01
I1
tp4848
(I00
S'1 2'
p4849
(I00
S'1 2'
p4850
(I00
S'1 1'
p4851
(I01
I2
tp4852
(I01
I2
tp4853
tp4854
(I00
S'1 1'
p4855
(I01
I2
tp4856
(I00
S'0 2'
p4857
(I01
I2
tp4858
(I00
S'1 2'
p4859
(I01
I0
tp4860
(I01
I0
tp4861
tp4862
tp4863
tp4864
tp4865
(I00
S'1 1'
p4866
(I00
S'1 1'
p4867
(I01
I2
tp4868
(I01
I0
tp4869
tp4870
(I00
S'0 2'
p4871
(I00
S'1 2'
p4872
(I00
S'0 2'
p4873
(I00
S'0 1'
p4874
(I01
I0
tp4875
(I01
I0
tp4876
tp4877
(I01
I0
tp4878
tp4879
(I00
S'0 2'
p4880
(I01
I0
tp4881
(I01
I2
tp4882
tp4883
tp4884
(I01
I0
tp4885
tp4886
tp4887
tp4888
tp4889
(I00
S'1 1'
p4890
(I01
I1
tp4891
(I00
S'1 1'
p4892
(I00
S'0 1'
p4893
(I01
I2
tp4894
(I01
I0
tp4895
tp4896
(I00
S'0 2'
p4897
(I01
I2
tp4898
(I01
I2
tp4899
tp4900
tp4901
tp4902
tp4903
(I00
S'1 1'
p4904
(I00
S'1 1'
p4905
(I01
I0
tp4906
(I00
S'1 1'
p4907
(I01
I1
tp4908
(I00
S'1 2'
p4909
(I01
I0
tp4910
(I01
I1
tp4911
tp4912
tp4913
tp4914
(I01
I1
tp4915
tp4916
tp4917
tp4918
tp4919
bag1
(tRp4920
(S'-12.5664 12.5664 -50 50 '
p4921
I2
F0.8500000238418579
F0.10000000149011612
F0.25
(I00
S'1 1'
p4922
(I00
S'1 2'
p4923
(I00
S'1 2'
p4924
(I01
I2
tp4925
(I01
I2
tp4926
tp4927
(I00
S'0 2'
p4928
(I00
S'0 1'
p4929
(I00
S'1 2'
p4930
(I00
S'0 2'
p4931
(I01
I1
tp4932
(I00
S'1 2'
p4933
(I01
I2
tp4934
(I00
S'0 1'
p4935
(I01
I2
tp4936
(I00
S'1 2'
p4937
(I00
S'0 2'
p4938
(I01
I2
tp4939
(I01
I2
tp4940
tp4941
(I01
I2
tp4942
tp4943
tp4944
tp4945
tp4946
(I01
I0
tp4947
tp4948
(I00
S'1 2'
p4949
(I01
I2
tp4950
(I00
S'0 1'
p4951
(I01
I0
tp4952
(I00
S'1 1'
p4953
(I01
I1
tp4954
(I01
I1
tp4955
tp4956
tp4957
tp4958
tp4959
(I00
S'1 1'
p4960
(I00
S'1 2'
p4961
(I00
S'0 1'
p4962
(I01
I0
tp4963
(I00
S'1 2'
p4964
(I01
I0
tp4965
(I01
I0
tp4966
tp4967
tp4968
(I01
I2
tp4969
tp4970
(I00
S'1 2'
p4971
(I01
I1
tp4972
(I01
I0
tp4973
tp4974
tp4975
tp4976
tp4977
(I00
S'0 2'
p4978
(I00
S'1 2'
p4979
(I00
S'0 1'
p4980
(I01
I1
tp4981
(I00
S'1 2'
p4982
(I00
S'1 2'
p4983
(I00
S'1 1'
p4984
(I01
I2
tp4985
(I01
I2
tp4986
tp4987
(I00
S'1 1'
p4988
(I01
I2
tp4989
(I00
S'0 2'
p4990
(I01
I2
tp4991
(I00
S'1 2'
p4992
(I01
I0
tp4993
(I01
I0
tp4994
tp4995
tp4996
tp4997
tp4998
(I00
S'1 1'
p4999
(I00
S'1 1'
p5000
(I01
I2
tp5001
(I01
I0
tp5002
tp5003
(I00
S'0 2'
p5004
(I00
S'1 2'
p5005
(I00
S'0 2'
p5006
(I00
S'0 1'
p5007
(I01
I0
tp5008
(I01
I0
tp5009
tp5010
(I01
I0
tp5011
tp5012
(I00
S'0 2'
p5013
(I01
I0
tp5014
(I01
I2
tp5015
tp5016
tp5017
(I01
I0
tp5018
tp5019
tp5020
tp5021
tp5022
(I00
S'1 1'
p5023
(I01
I1
tp5024
(I00
S'1 1'
p5025
(I00
S'0 1'
p5026
(I01
I2
tp5027
(I01
I0
tp5028
tp5029
(I00
S'0 2'
p5030
(I01
I2
tp5031
(I01
I2
tp5032
tp5033
tp5034
tp5035
tp5036
(I00
S'1 1'
p5037
(I00
S'1 1'
p5038
(I01
I0
tp5039
(I00
S'1 1'
p5040
(I01
I1
tp5041
(I00
S'1 2'
p5042
(I01
I0
tp5043
(I01
I1
tp5044
tp5045
tp5046
tp5047
(I01
I1
tp5048
tp5049
tp5050
tp5051
tp5052
bag1
(tRp5053
(S'-12.5664 12.5664 -50 50 '
p5054
I2
F0.8500000238418579
F0.10000000149011612
F0.25
(I00
S'1 1'
p5055
(I00
S'1 2'
p5056
(I00
S'1 2'
p5057
(I01
I2
tp5058
(I01
I2
tp5059
tp5060
(I00
S'0 2'
p5061
(I00
S'0 1'
p5062
(I00
S'1 2'
p5063
(I00
S'0 2'
p5064
(I01
I1
tp5065
(I00
S'1 2'
p5066
(I01
I2
tp5067
(I00
S'0 1'
p5068
(I01
I2
tp5069
(I00
S'1 2'
p5070
(I00
S'0 2'
p5071
(I01
I2
tp5072
(I01
I2
tp5073
tp5074
(I01
I2
tp5075
tp5076
tp5077
tp5078
tp5079
(I01
I0
tp5080
tp5081
(I00
S'1 2'
p5082
(I01
I2
tp5083
(I00
S'0 1'
p5084
(I01
I0
tp5085
(I00
S'1 1'
p5086
(I01
I1
tp5087
(I01
I1
tp5088
tp5089
tp5090
tp5091
tp5092
(I00
S'1 1'
p5093
(I00
S'1 2'
p5094
(I00
S'0 1'
p5095
(I01
I0
tp5096
(I00
S'1 2'
p5097
(I01
I0
tp5098
(I01
I0
tp5099
tp5100
tp5101
(I01
I2
tp5102
tp5103
(I00
S'1 2'
p5104
(I01
I1
tp5105
(I01
I0
tp5106
tp5107
tp5108
tp5109
tp5110
(I00
S'0 2'
p5111
(I00
S'1 2'
p5112
(I00
S'0 1'
p5113
(I01
I1
tp5114
(I00
S'1 2'
p5115
(I00
S'1 2'
p5116
(I00
S'1 1'
p5117
(I01
I2
tp5118
(I01
I2
tp5119
tp5120
(I00
S'1 1'
p5121
(I01
I2
tp5122
(I00
S'0 2'
p5123
(I01
I2
tp5124
(I00
S'1 2'
p5125
(I01
I0
tp5126
(I01
I0
tp5127
tp5128
tp5129
tp5130
tp5131
(I00
S'1 1'
p5132
(I00
S'1 1'
p5133
(I01
I2
tp5134
(I01
I0
tp5135
tp5136
(I00
S'0 2'
p5137
(I00
S'1 2'
p5138
(I00
S'0 2'
p5139
(I00
S'0 1'
p5140
(I01
I0
tp5141
(I01
I0
tp5142
tp5143
(I01
I0
tp5144
tp5145
(I00
S'0 2'
p5146
(I01
I0
tp5147
(I01
I2
tp5148
tp5149
tp5150
(I01
I0
tp5151
tp5152
tp5153
tp5154
tp5155
(I00
S'1 1'
p5156
(I01
I1
tp5157
(I00
S'1 1'
p5158
(I00
S'0 1'
p5159
(I01
I2
tp5160
(I01
I0
tp5161
tp5162
(I00
S'0 2'
p5163
(I01
I2
tp5164
(I01
I2
tp5165
tp5166
tp5167
tp5168
tp5169
(I00
S'1 1'
p5170
(I00
S'1 1'
p5171
(I01
I0
tp5172
(I00
S'1 1'
p5173
(I01
I1
tp5174
(I00
S'1 2'
p5175
(I01
I0
tp5176
(I01
I1
tp5177
tp5178
tp5179
tp5180
(I01
I1
tp5181
tp5182
tp5183
tp5184
tp5185
bag1
(tRp5186
(S'-12.5664 12.5664 -50 50 '
p5187
I2
F0.8500000238418579
F0.10000000149011612
F0.25
(I00
S'1 1'
p5188
(I00
S'1 2'
p5189
(I00
S'1 2'
p5190
(I01
I2
tp5191
(I01
I2
tp5192
tp5193
(I00
S'0 2'
p5194
(I00
S'0 1'
p5195
(I00
S'1 2'
p5196
(I00
S'0 2'
p5197
(I01
I1
tp5198
(I00
S'1 2'
p5199
(I01
I2
tp5200
(I00
S'0 1'
p5201
(I01
I2
tp5202
(I00
S'1 2'
p5203
(I00
S'0 2'
p5204
(I01
I2
tp5205
(I01
I2
tp5206
tp5207
(I01
I2
tp5208
tp5209
tp5210
tp5211
tp5212
(I01
I0
tp5213
tp5214
(I00
S'1 2'
p5215
(I01
I2
tp5216
(I00
S'0 1'
p5217
(I01
I0
tp5218
(I00
S'1 1'
p5219
(I01
I1
tp5220
(I01
I1
tp5221
tp5222
tp5223
tp5224
tp5225
(I00
S'1 1'
p5226
(I00
S'1 2'
p5227
(I00
S'0 1'
p5228
(I01
I0
tp5229
(I00
S'1 2'
p5230
(I01
I0
tp5231
(I01
I0
tp5232
tp5233
tp5234
(I01
I2
tp5235
tp5236
(I00
S'1 2'
p5237
(I01
I1
tp5238
(I01
I0
tp5239
tp5240
tp5241
tp5242
tp5243
(I00
S'0 2'
p5244
(I00
S'1 2'
p5245
(I00
S'0 1'
p5246
(I01
I1
tp5247
(I00
S'1 2'
p5248
(I00
S'1 2'
p5249
(I00
S'1 1'
p5250
(I01
I2
tp5251
(I01
I2
tp5252
tp5253
(I00
S'1 1'
p5254
(I01
I2
tp5255
(I00
S'0 2'
p5256
(I01
I2
tp5257
(I00
S'1 2'
p5258
(I01
I0
tp5259
(I01
I0
tp5260
tp5261
tp5262
tp5263
tp5264
(I00
S'1 1'
p5265
(I00
S'1 1'
p5266
(I01
I2
tp5267
(I01
I0
tp5268
tp5269
(I00
S'0 2'
p5270
(I00
S'1 2'
p5271
(I00
S'0 2'
p5272
(I00
S'0 1'
p5273
(I01
I0
tp5274
(I01
I0
tp5275
tp5276
(I01
I0
tp5277
tp5278
(I00
S'0 2'
p5279
(I01
I0
tp5280
(I01
I2
tp5281
tp5282
tp5283
(I01
I0
tp5284
tp5285
tp5286
tp5287
tp5288
(I00
S'1 1'
p5289
(I01
I1
tp5290
(I00
S'1 1'
p5291
(I00
S'0 1'
p5292
(I01
I2
tp5293
(I01
I0
tp5294
tp5295
(I00
S'0 2'
p5296
(I01
I2
tp5297
(I01
I2
tp5298
tp5299
tp5300
tp5301
tp5302
(I00
S'1 1'
p5303
(I00
S'1 1'
p5304
(I01
I0
tp5305
(I00
S'1 1'
p5306
(I01
I1
tp5307
(I00
S'1 2'
p5308
(I01
I0
tp5309
(I01
I1
tp5310
tp5311
tp5312
tp5313
(I01
I1
tp5314
tp5315
tp5316
tp5317
tp5318
bag1
(tRp5319
(S'-12.5664 12.5664 -50 50 '
p5320
I2
F0.8500000238418579
F0.10000000149011612
F0.25
(I00
S'1 1'
p5321
(I00
S'1 2'
p5322
(I00
S'1 2'
p5323
(I01
I2
tp5324
(I01
I2
tp5325
tp5326
(I00
S'0 2'
p5327
(I00
S'0 1'
p5328
(I00
S'1 2'
p5329
(I00
S'0 2'
p5330
(I01
I1
tp5331
(I00
S'1 2'
p5332
(I01
I2
tp5333
(I00
S'0 1'
p5334
(I01
I2
tp5335
(I00
S'1 2'
p5336
(I00
S'0 2'
p5337
(I01
I2
tp5338
(I01
I2
tp5339
tp5340
(I01
I2
tp5341
tp5342
tp5343
tp5344
tp5345
(I01
I0
tp5346
tp5347
(I00
S'1 2'
p5348
(I01
I1
tp5349
(I00
S'0 1'
p5350
(I01
I0
tp5351
(I00
S'1 1'
p5352
(I01
I1
tp5353
(I01
I1
tp5354
tp5355
tp5356
tp5357
tp5358
(I00
S'1 1'
p5359
(I00
S'1 2'
p5360
(I00
S'0 1'
p5361
(I01
I0
tp5362
(I00
S'1 2'
p5363
(I01
I0
tp5364
(I01
I0
tp5365
tp5366
tp5367
(I01
I2
tp5368
tp5369
(I00
S'1 2'
p5370
(I01
I1
tp5371
(I01
I0
tp5372
tp5373
tp5374
tp5375
tp5376
(I00
S'0 2'
p5377
(I00
S'1 2'
p5378
(I00
S'0 1'
p5379
(I01
I1
tp5380
(I00
S'1 2'
p5381
(I00
S'1 2'
p5382
(I00
S'1 1'
p5383
(I01
I2
tp5384
(I01
I2
tp5385
tp5386
(I00
S'1 1'
p5387
(I01
I2
tp5388
(I00
S'0 2'
p5389
(I01
I2
tp5390
(I00
S'1 2'
p5391
(I01
I0
tp5392
(I01
I0
tp5393
tp5394
tp5395
tp5396
tp5397
(I00
S'1 1'
p5398
(I00
S'1 1'
p5399
(I01
I2
tp5400
(I01
I0
tp5401
tp5402
(I00
S'0 2'
p5403
(I00
S'1 2'
p5404
(I00
S'0 2'
p5405
(I00
S'0 1'
p5406
(I01
I0
tp5407
(I01
I0
tp5408
tp5409
(I01
I0
tp5410
tp5411
(I00
S'0 2'
p5412
(I01
I0
tp5413
(I01
I2
tp5414
tp5415
tp5416
(I01
I0
tp5417
tp5418
tp5419
tp5420
tp5421
(I00
S'1 1'
p5422
(I01
I1
tp5423
(I00
S'1 1'
p5424
(I00
S'0 1'
p5425
(I01
I2
tp5426
(I01
I0
tp5427
tp5428
(I00
S'0 2'
p5429
(I01
I2
tp5430
(I01
I2
tp5431
tp5432
tp5433
tp5434
tp5435
(I00
S'1 1'
p5436
(I00
S'1 1'
p5437
(I01
I0
tp5438
(I00
S'1 1'
p5439
(I01
I1
tp5440
(I00
S'1 2'
p5441
(I01
I0
tp5442
(I01
I1
tp5443
tp5444
tp5445
tp5446
(I01
I1
tp5447
tp5448
tp5449
tp5450
tp5451
bag1
(tRp5452
(S'-12.5664 12.5664 -50 50 '
p5453
I2
F0.8500000238418579
F0.10000000149011612
F0.25
(I00
S'1 1'
p5454
(I00
S'1 2'
p5455
(I00
S'1 2'
p5456
(I01
I2
tp5457
(I01
I2
tp5458
tp5459
(I00
S'0 2'
p5460
(I00
S'0 1'
p5461
(I00
S'1 2'
p5462
(I00
S'0 2'
p5463
(I01
I1
tp5464
(I00
S'1 2'
p5465
(I01
I2
tp5466
(I00
S'0 1'
p5467
(I01
I2
tp5468
(I00
S'1 2'
p5469
(I00
S'0 2'
p5470
(I01
I2
tp5471
(I01
I2
tp5472
tp5473
(I01
I2
tp5474
tp5475
tp5476
tp5477
tp5478
(I01
I0
tp5479
tp5480
(I00
S'1 2'
p5481
(I01
I2
tp5482
(I00
S'0 1'
p5483
(I01
I0
tp5484
(I00
S'1 1'
p5485
(I01
I1
tp5486
(I01
I1
tp5487
tp5488
tp5489
tp5490
tp5491
(I00
S'1 1'
p5492
(I00
S'1 2'
p5493
(I00
S'0 1'
p5494
(I01
I0
tp5495
(I00
S'1 2'
p5496
(I01
I0
tp5497
(I01
I0
tp5498
tp5499
tp5500
(I01
I2
tp5501
tp5502
(I00
S'1 2'
p5503
(I01
I1
tp5504
(I01
I0
tp5505
tp5506
tp5507
tp5508
tp5509
(I00
S'0 2'
p5510
(I00
S'1 2'
p5511
(I00
S'0 1'
p5512
(I01
I1
tp5513
(I00
S'1 2'
p5514
(I00
S'1 2'
p5515
(I00
S'1 1'
p5516
(I01
I2
tp5517
(I01
I2
tp5518
tp5519
(I00
S'1 1'
p5520
(I01
I2
tp5521
(I00
S'0 2'
p5522
(I01
I2
tp5523
(I00
S'1 2'
p5524
(I01
I0
tp5525
(I01
I0
tp5526
tp5527
tp5528
tp5529
tp5530
(I00
S'1 1'
p5531
(I00
S'1 1'
p5532
(I01
I2
tp5533
(I01
I0
tp5534
tp5535
(I00
S'0 2'
p5536
(I00
S'1 2'
p5537
(I00
S'0 2'
p5538
(I00
S'0 1'
p5539
(I01
I0
tp5540
(I01
I0
tp5541
tp5542
(I01
I0
tp5543
tp5544
(I00
S'0 2'
p5545
(I01
I0
tp5546
(I01
I2
tp5547
tp5548
tp5549
(I01
I0
tp5550
tp5551
tp5552
tp5553
tp5554
(I00
S'1 1'
p5555
(I01
I1
tp5556
(I00
S'1 1'
p5557
(I00
S'0 1'
p5558
(I01
I2
tp5559
(I01
I0
tp5560
tp5561
(I00
S'0 2'
p5562
(I01
I2
tp5563
(I01
I2
tp5564
tp5565
tp5566
tp5567
tp5568
(I00
S'1 1'
p5569
(I00
S'1 1'
p5570
(I01
I0
tp5571
(I00
S'1 1'
p5572
(I01
I1
tp5573
(I00
S'1 2'
p5574
(I01
I0
tp5575
(I01
I1
tp5576
tp5577
tp5578
tp5579
(I01
I1
tp5580
tp5581
tp5582
tp5583
tp5584
bag1
(tRp5585
(S'-12.5664 12.5664 -50 50 '
p5586
I2
F0.8500000238418579
F0.10000000149011612
F0.25
(I00
S'1 1'
p5587
(I00
S'1 2'
p5588
(I00
S'1 2'
p5589
(I01
I2
tp5590
(I01
I2
tp5591
tp5592
(I00
S'0 2'
p5593
(I00
S'0 1'
p5594
(I00
S'1 2'
p5595
(I00
S'0 2'
p5596
(I01
I1
tp5597
(I00
S'1 2'
p5598
(I01
I2
tp5599
(I00
S'0 1'
p5600
(I01
I2
tp5601
(I00
S'1 2'
p5602
(I00
S'0 2'
p5603
(I01
I2
tp5604
(I01
I2
tp5605
tp5606
(I01
I2
tp5607
tp5608
tp5609
tp5610
tp5611
(I01
I0
tp5612
tp5613
(I00
S'1 2'
p5614
(I01
I2
tp5615
(I00
S'0 1'
p5616
(I01
I0
tp5617
(I00
S'1 1'
p5618
(I01
I1
tp5619
(I01
I1
tp5620
tp5621
tp5622
tp5623
tp5624
(I00
S'1 1'
p5625
(I00
S'1 2'
p5626
(I00
S'0 1'
p5627
(I01
I0
tp5628
(I00
S'1 2'
p5629
(I01
I0
tp5630
(I01
I0
tp5631
tp5632
tp5633
(I01
I2
tp5634
tp5635
(I00
S'1 2'
p5636
(I01
I1
tp5637
(I01
I0
tp5638
tp5639
tp5640
tp5641
tp5642
(I00
S'0 2'
p5643
(I00
S'1 2'
p5644
(I00
S'0 1'
p5645
(I01
I1
tp5646
(I00
S'1 2'
p5647
(I00
S'1 2'
p5648
(I00
S'1 1'
p5649
(I01
I2
tp5650
(I01
I2
tp5651
tp5652
(I00
S'1 1'
p5653
(I01
I2
tp5654
(I00
S'0 2'
p5655
(I01
I2
tp5656
(I00
S'1 2'
p5657
(I01
I0
tp5658
(I01
I0
tp5659
tp5660
tp5661
tp5662
tp5663
(I00
S'1 1'
p5664
(I00
S'1 1'
p5665
(I01
I2
tp5666
(I01
I0
tp5667
tp5668
(I00
S'0 2'
p5669
(I00
S'1 2'
p5670
(I00
S'0 2'
p5671
(I00
S'0 1'
p5672
(I01
I0
tp5673
(I01
I0
tp5674
tp5675
(I01
I0
tp5676
tp5677
(I00
S'0 2'
p5678
(I01
I0
tp5679
(I01
I2
tp5680
tp5681
tp5682
(I01
I0
tp5683
tp5684
tp5685
tp5686
tp5687
(I00
S'1 1'
p5688
(I01
I1
tp5689
(I00
S'1 1'
p5690
(I00
S'0 1'
p5691
(I01
I2
tp5692
(I01
I0
tp5693
tp5694
(I00
S'0 2'
p5695
(I01
I2
tp5696
(I01
I2
tp5697
tp5698
tp5699
tp5700
tp5701
(I00
S'1 1'
p5702
(I00
S'1 1'
p5703
(I01
I0
tp5704
(I00
S'1 1'
p5705
(I01
I1
tp5706
(I00
S'1 2'
p5707
(I01
I0
tp5708
(I01
I1
tp5709
tp5710
tp5711
tp5712
(I01
I1
tp5713
tp5714
tp5715
tp5716
tp5717
bag1
(tRp5718
(S'-12.5664 12.5664 -50 50 '
p5719
I2
F0.8500000238418579
F0.10000000149011612
F0.25
(I00
S'1 1'
p5720
(I00
S'1 2'
p5721
(I00
S'1 2'
p5722
(I01
I2
tp5723
(I01
I2
tp5724
tp5725
(I00
S'0 2'
p5726
(I00
S'0 1'
p5727
(I00
S'1 2'
p5728
(I00
S'0 2'
p5729
(I01
I1
tp5730
(I00
S'1 2'
p5731
(I01
I2
tp5732
(I00
S'0 1'
p5733
(I01
I2
tp5734
(I00
S'1 2'
p5735
(I00
S'0 2'
p5736
(I01
I2
tp5737
(I01
I2
tp5738
tp5739
(I01
I2
tp5740
tp5741
tp5742
tp5743
tp5744
(I01
I0
tp5745
tp5746
(I00
S'1 2'
p5747
(I01
I2
tp5748
(I00
S'0 1'
p5749
(I01
I0
tp5750
(I00
S'1 1'
p5751
(I01
I1
tp5752
(I01
I1
tp5753
tp5754
tp5755
tp5756
tp5757
(I00
S'1 1'
p5758
(I00
S'1 2'
p5759
(I00
S'0 1'
p5760
(I01
I0
tp5761
(I00
S'1 2'
p5762
(I01
I0
tp5763
(I01
I0
tp5764
tp5765
tp5766
(I01
I2
tp5767
tp5768
(I00
S'1 2'
p5769
(I01
I1
tp5770
(I01
I0
tp5771
tp5772
tp5773
tp5774
tp5775
(I00
S'0 2'
p5776
(I00
S'1 2'
p5777
(I00
S'0 1'
p5778
(I01
I1
tp5779
(I00
S'1 2'
p5780
(I00
S'1 2'
p5781
(I00
S'1 1'
p5782
(I01
I2
tp5783
(I01
I2
tp5784
tp5785
(I00
S'1 1'
p5786
(I01
I2
tp5787
(I00
S'0 2'
p5788
(I01
I2
tp5789
(I00
S'1 2'
p5790
(I01
I0
tp5791
(I01
I0
tp5792
tp5793
tp5794
tp5795
tp5796
(I00
S'1 1'
p5797
(I00
S'1 1'
p5798
(I01
I2
tp5799
(I01
I0
tp5800
tp5801
(I00
S'0 2'
p5802
(I00
S'1 2'
p5803
(I00
S'0 2'
p5804
(I00
S'0 1'
p5805
(I01
I0
tp5806
(I01
I0
tp5807
tp5808
(I01
I0
tp5809
tp5810
(I00
S'0 2'
p5811
(I01
I0
tp5812
(I01
I2
tp5813
tp5814
tp5815
(I01
I0
tp5816
tp5817
tp5818
tp5819
tp5820
(I00
S'1 1'
p5821
(I01
I1
tp5822
(I00
S'1 1'
p5823
(I00
S'0 1'
p5824
(I01
I2
tp5825
(I01
I0
tp5826
tp5827
(I00
S'0 2'
p5828
(I01
I2
tp5829
(I01
I2
tp5830
tp5831
tp5832
tp5833
tp5834
(I00
S'1 1'
p5835
(I00
S'1 1'
p5836
(I01
I0
tp5837
(I00
S'1 1'
p5838
(I01
I1
tp5839
(I00
S'1 2'
p5840
(I01
I0
tp5841
(I01
I1
tp5842
tp5843
tp5844
tp5845
(I01
I1
tp5846
tp5847
tp5848
tp5849
tp5850
bag1
(tRp5851
(S'-12.5664 12.5664 -50 50 '
p5852
I2
F0.8500000238418579
F0.10000000149011612
F0.25
(I00
S'1 1'
p5853
(I00
S'1 2'
p5854
(I00
S'1 2'
p5855
(I01
I2
tp5856
(I01
I2
tp5857
tp5858
(I00
S'0 2'
p5859
(I00
S'0 1'
p5860
(I00
S'1 2'
p5861
(I00
S'0 2'
p5862
(I01
I1
tp5863
(I00
S'1 2'
p5864
(I01
I2
tp5865
(I00
S'0 1'
p5866
(I01
I2
tp5867
(I00
S'1 2'
p5868
(I00
S'0 2'
p5869
(I01
I2
tp5870
(I01
I2
tp5871
tp5872
(I01
I2
tp5873
tp5874
tp5875
tp5876
tp5877
(I01
I0
tp5878
tp5879
(I00
S'1 2'
p5880
(I01
I2
tp5881
(I00
S'0 1'
p5882
(I01
I0
tp5883
(I00
S'1 1'
p5884
(I01
I1
tp5885
(I01
I1
tp5886
tp5887
tp5888
tp5889
tp5890
(I00
S'1 1'
p5891
(I00
S'1 2'
p5892
(I00
S'0 1'
p5893
(I01
I0
tp5894
(I00
S'1 2'
p5895
(I01
I0
tp5896
(I01
I0
tp5897
tp5898
tp5899
(I01
I2
tp5900
tp5901
(I00
S'1 2'
p5902
(I01
I1
tp5903
(I01
I0
tp5904
tp5905
tp5906
tp5907
tp5908
(I00
S'0 2'
p5909
(I00
S'1 2'
p5910
(I00
S'0 1'
p5911
(I01
I1
tp5912
(I00
S'1 2'
p5913
(I00
S'1 2'
p5914
(I00
S'1 1'
p5915
(I01
I2
tp5916
(I01
I2
tp5917
tp5918
(I00
S'1 1'
p5919
(I01
I2
tp5920
(I00
S'0 2'
p5921
(I01
I2
tp5922
(I00
S'1 2'
p5923
(I01
I0
tp5924
(I01
I0
tp5925
tp5926
tp5927
tp5928
tp5929
(I00
S'1 1'
p5930
(I00
S'1 1'
p5931
(I01
I2
tp5932
(I01
I0
tp5933
tp5934
(I00
S'0 2'
p5935
(I00
S'1 2'
p5936
(I00
S'0 2'
p5937
(I00
S'0 1'
p5938
(I01
I0
tp5939
(I01
I0
tp5940
tp5941
(I01
I0
tp5942
tp5943
(I00
S'0 2'
p5944
(I01
I0
tp5945
(I01
I2
tp5946
tp5947
tp5948
(I01
I0
tp5949
tp5950
tp5951
tp5952
tp5953
(I00
S'1 1'
p5954
(I01
I1
tp5955
(I00
S'1 1'
p5956
(I00
S'0 1'
p5957
(I01
I2
tp5958
(I01
I0
tp5959
tp5960
(I00
S'0 2'
p5961
(I01
I2
tp5962
(I01
I2
tp5963
tp5964
tp5965
tp5966
tp5967
(I00
S'1 1'
p5968
(I00
S'1 1'
p5969
(I01
I0
tp5970
(I00
S'1 1'
p5971
(I01
I1
tp5972
(I00
S'1 2'
p5973
(I01
I0
tp5974
(I01
I1
tp5975
tp5976
tp5977
tp5978
(I01
I1
tp5979
tp5980
tp5981
tp5982
tp5983
bag1
(tRp5984
(S'-12.5664 12.5664 -50 50 '
p5985
I2
F0.8500000238418579
F0.10000000149011612
F0.25
(I00
S'1 1'
p5986
(I00
S'1 2'
p5987
(I00
S'1 2'
p5988
(I01
I2
tp5989
(I01
I2
tp5990
tp5991
(I00
S'0 2'
p5992
(I00
S'0 1'
p5993
(I00
S'1 2'
p5994
(I00
S'0 2'
p5995
(I01
I1
tp5996
(I00
S'1 2'
p5997
(I01
I2
tp5998
(I00
S'0 1'
p5999
(I01
I2
tp6000
(I00
S'1 2'
p6001
(I00
S'0 2'
p6002
(I01
I2
tp6003
(I01
I2
tp6004
tp6005
(I01
I2
tp6006
tp6007
tp6008
tp6009
tp6010
(I01
I0
tp6011
tp6012
(I00
S'1 2'
p6013
(I01
I2
tp6014
(I00
S'0 1'
p6015
(I01
I0
tp6016
(I00
S'1 1'
p6017
(I01
I1
tp6018
(I01
I1
tp6019
tp6020
tp6021
tp6022
tp6023
(I00
S'1 1'
p6024
(I00
S'1 2'
p6025
(I00
S'0 1'
p6026
(I01
I0
tp6027
(I00
S'1 2'
p6028
(I01
I0
tp6029
(I01
I0
tp6030
tp6031
tp6032
(I01
I2
tp6033
tp6034
(I00
S'1 2'
p6035
(I01
I1
tp6036
(I01
I2
tp6037
tp6038
tp6039
tp6040
tp6041
(I00
S'0 2'
p6042
(I00
S'1 2'
p6043
(I00
S'0 1'
p6044
(I01
I1
tp6045
(I00
S'1 2'
p6046
(I00
S'1 2'
p6047
(I00
S'1 1'
p6048
(I01
I2
tp6049
(I01
I2
tp6050
tp6051
(I00
S'1 1'
p6052
(I01
I2
tp6053
(I00
S'0 2'
p6054
(I01
I2
tp6055
(I00
S'1 2'
p6056
(I01
I0
tp6057
(I01
I0
tp6058
tp6059
tp6060
tp6061
tp6062
(I00
S'1 1'
p6063
(I00
S'1 1'
p6064
(I01
I2
tp6065
(I01
I0
tp6066
tp6067
(I00
S'0 2'
p6068
(I00
S'1 2'
p6069
(I00
S'0 2'
p6070
(I00
S'0 1'
p6071
(I01
I0
tp6072
(I01
I0
tp6073
tp6074
(I01
I0
tp6075
tp6076
(I00
S'0 2'
p6077
(I01
I0
tp6078
(I01
I2
tp6079
tp6080
tp6081
(I01
I0
tp6082
tp6083
tp6084
tp6085
tp6086
(I00
S'1 1'
p6087
(I01
I1
tp6088
(I00
S'1 1'
p6089
(I00
S'0 1'
p6090
(I01
I2
tp6091
(I01
I0
tp6092
tp6093
(I00
S'0 2'
p6094
(I01
I2
tp6095
(I01
I2
tp6096
tp6097
tp6098
tp6099
tp6100
(I00
S'1 1'
p6101
(I00
S'1 1'
p6102
(I01
I0
tp6103
(I00
S'1 1'
p6104
(I01
I1
tp6105
(I00
S'1 2'
p6106
(I01
I0
tp6107
(I01
I1
tp6108
tp6109
tp6110
tp6111
(I01
I1
tp6112
tp6113
tp6114
tp6115
tp6116
bag1
(tRp6117
(S'-12.5664 12.5664 -50 50 '
p6118
I2
F0.8500000238418579
F0.10000000149011612
F0.25
(I00
S'1 1'
p6119
(I00
S'1 2'
p6120
(I00
S'1 2'
p6121
(I01
I2
tp6122
(I01
I2
tp6123
tp6124
(I00
S'0 2'
p6125
(I00
S'0 1'
p6126
(I00
S'1 2'
p6127
(I00
S'0 2'
p6128
(I01
I1
tp6129
(I00
S'1 2'
p6130
(I01
I2
tp6131
(I00
S'0 1'
p6132
(I01
I2
tp6133
(I00
S'1 2'
p6134
(I00
S'0 2'
p6135
(I01
I2
tp6136
(I01
I2
tp6137
tp6138
(I01
I2
tp6139
tp6140
tp6141
tp6142
tp6143
(I01
I0
tp6144
tp6145
(I00
S'1 2'
p6146
(I01
I2
tp6147
(I00
S'0 1'
p6148
(I01
I0
tp6149
(I00
S'1 1'
p6150
(I01
I1
tp6151
(I01
I1
tp6152
tp6153
tp6154
tp6155
tp6156
(I00
S'1 1'
p6157
(I00
S'1 2'
p6158
(I00
S'0 1'
p6159
(I01
I0
tp6160
(I00
S'1 2'
p6161
(I01
I0
tp6162
(I01
I0
tp6163
tp6164
tp6165
(I01
I2
tp6166
tp6167
(I00
S'1 2'
p6168
(I01
I1
tp6169
(I01
I0
tp6170
tp6171
tp6172
tp6173
tp6174
(I00
S'0 2'
p6175
(I00
S'1 2'
p6176
(I00
S'0 1'
p6177
(I01
I1
tp6178
(I00
S'1 2'
p6179
(I00
S'1 2'
p6180
(I00
S'1 1'
p6181
(I01
I2
tp6182
(I01
I2
tp6183
tp6184
(I00
S'1 1'
p6185
(I01
I2
tp6186
(I00
S'0 2'
p6187
(I01
I2
tp6188
(I00
S'1 2'
p6189
(I01
I0
tp6190
(I01
I0
tp6191
tp6192
tp6193
tp6194
tp6195
(I00
S'1 1'
p6196
(I00
S'1 1'
p6197
(I01
I2
tp6198
(I01
I0
tp6199
tp6200
(I00
S'0 2'
p6201
(I00
S'1 2'
p6202
(I00
S'0 2'
p6203
(I00
S'0 1'
p6204
(I01
I0
tp6205
(I01
I0
tp6206
tp6207
(I01
I0
tp6208
tp6209
(I00
S'0 2'
p6210
(I01
I0
tp6211
(I01
I2
tp6212
tp6213
tp6214
(I01
I0
tp6215
tp6216
tp6217
tp6218
tp6219
(I00
S'1 1'
p6220
(I01
I1
tp6221
(I00
S'1 1'
p6222
(I00
S'0 2'
p6223
(I01
I2
tp6224
(I01
I0
tp6225
tp6226
(I00
S'0 2'
p6227
(I01
I2
tp6228
(I01
I2
tp6229
tp6230
tp6231
tp6232
tp6233
(I00
S'1 1'
p6234
(I00
S'1 1'
p6235
(I01
I0
tp6236
(I00
S'1 1'
p6237
(I01
I1
tp6238
(I00
S'1 2'
p6239
(I01
I0
tp6240
(I01
I1
tp6241
tp6242
tp6243
tp6244
(I01
I1
tp6245
tp6246
tp6247
tp6248
tp6249
bag1
(tRp6250
(S'-12.5664 12.5664 -50 50 '
p6251
I2
F0.8500000238418579
F0.10000000149011612
F0.25
(I00
S'1 1'
p6252
(I00
S'1 2'
p6253
(I00
S'1 2'
p6254
(I01
I2
tp6255
(I01
I2
tp6256
tp6257
(I00
S'0 2'
p6258
(I00
S'0 1'
p6259
(I00
S'1 2'
p6260
(I00
S'0 2'
p6261
(I01
I1
tp6262
(I00
S'1 2'
p6263
(I01
I2
tp6264
(I00
S'0 1'
p6265
(I01
I2
tp6266
(I00
S'1 2'
p6267
(I00
S'0 2'
p6268
(I01
I2
tp6269
(I01
I2
tp6270
tp6271
(I01
I2
tp6272
tp6273
tp6274
tp6275
tp6276
(I01
I0
tp6277
tp6278
(I00
S'1 2'
p6279
(I01
I2
tp6280
(I00
S'0 1'
p6281
(I01
I0
tp6282
(I00
S'1 1'
p6283
(I01
I1
tp6284
(I01
I1
tp6285
tp6286
tp6287
tp6288
tp6289
(I00
S'1 1'
p6290
(I00
S'1 2'
p6291
(I00
S'0 1'
p6292
(I01
I0
tp6293
(I00
S'1 2'
p6294
(I01
I0
tp6295
(I01
I0
tp6296
tp6297
tp6298
(I01
I2
tp6299
tp6300
(I00
S'1 2'
p6301
(I01
I1
tp6302
(I01
I0
tp6303
tp6304
tp6305
tp6306
tp6307
(I00
S'0 2'
p6308
(I00
S'1 2'
p6309
(I00
S'0 1'
p6310
(I01
I1
tp6311
(I00
S'1 2'
p6312
(I00
S'1 2'
p6313
(I00
S'1 1'
p6314
(I01
I2
tp6315
(I01
I2
tp6316
tp6317
(I00
S'1 1'
p6318
(I01
I2
tp6319
(I00
S'0 2'
p6320
(I01
I2
tp6321
(I00
S'1 2'
p6322
(I01
I0
tp6323
(I01
I0
tp6324
tp6325
tp6326
tp6327
tp6328
(I00
S'1 1'
p6329
(I00
S'1 1'
p6330
(I01
I2
tp6331
(I01
I0
tp6332
tp6333
(I00
S'0 2'
p6334
(I00
S'1 2'
p6335
(I00
S'0 2'
p6336
(I00
S'0 1'
p6337
(I01
I0
tp6338
(I01
I0
tp6339
tp6340
(I01
I0
tp6341
tp6342
(I00
S'0 2'
p6343
(I01
I0
tp6344
(I01
I2
tp6345
tp6346
tp6347
(I01
I0
tp6348
tp6349
tp6350
tp6351
tp6352
(I00
S'1 1'
p6353
(I01
I1
tp6354
(I00
S'1 1'
p6355
(I00
S'0 1'
p6356
(I01
I2
tp6357
(I01
I0
tp6358
tp6359
(I00
S'0 2'
p6360
(I01
I2
tp6361
(I01
I2
tp6362
tp6363
tp6364
tp6365
tp6366
(I00
S'1 1'
p6367
(I00
S'1 1'
p6368
(I01
I0
tp6369
(I00
S'1 1'
p6370
(I01
I1
tp6371
(I00
S'1 2'
p6372
(I01
I0
tp6373
(I01
I1
tp6374
tp6375
tp6376
tp6377
(I01
I1
tp6378
tp6379
tp6380
tp6381
tp6382
bag1
(tRp6383
(S'-12.5664 12.5664 -50 50 '
p6384
I2
F0.8500000238418579
F0.10000000149011612
F0.25
(I00
S'1 1'
p6385
(I00
S'1 2'
p6386
(I00
S'1 2'
p6387
(I01
I2
tp6388
(I01
I2
tp6389
tp6390
(I00
S'0 2'
p6391
(I00
S'0 1'
p6392
(I00
S'1 2'
p6393
(I00
S'0 2'
p6394
(I01
I1
tp6395
(I00
S'1 2'
p6396
(I01
I2
tp6397
(I00
S'0 1'
p6398
(I01
I2
tp6399
(I00
S'1 2'
p6400
(I00
S'0 2'
p6401
(I01
I2
tp6402
(I01
I2
tp6403
tp6404
(I01
I2
tp6405
tp6406
tp6407
tp6408
tp6409
(I01
I0
tp6410
tp6411
(I00
S'1 2'
p6412
(I01
I2
tp6413
(I00
S'0 1'
p6414
(I01
I0
tp6415
(I00
S'1 1'
p6416
(I01
I1
tp6417
(I01
I1
tp6418
tp6419
tp6420
tp6421
tp6422
(I00
S'1 1'
p6423
(I00
S'1 2'
p6424
(I00
S'0 1'
p6425
(I01
I0
tp6426
(I00
S'1 2'
p6427
(I01
I0
tp6428
(I01
I0
tp6429
tp6430
tp6431
(I01
I2
tp6432
tp6433
(I00
S'1 2'
p6434
(I01
I1
tp6435
(I01
I0
tp6436
tp6437
tp6438
tp6439
tp6440
(I00
S'0 2'
p6441
(I00
S'1 2'
p6442
(I00
S'0 1'
p6443
(I01
I1
tp6444
(I00
S'1 2'
p6445
(I00
S'1 2'
p6446
(I00
S'1 1'
p6447
(I01
I2
tp6448
(I01
I2
tp6449
tp6450
(I00
S'1 1'
p6451
(I01
I2
tp6452
(I00
S'0 2'
p6453
(I01
I2
tp6454
(I00
S'1 2'
p6455
(I01
I0
tp6456
(I01
I0
tp6457
tp6458
tp6459
tp6460
tp6461
(I00
S'1 1'
p6462
(I00
S'1 1'
p6463
(I01
I2
tp6464
(I01
I0
tp6465
tp6466
(I00
S'0 2'
p6467
(I00
S'1 2'
p6468
(I00
S'0 2'
p6469
(I00
S'0 1'
p6470
(I01
I0
tp6471
(I01
I0
tp6472
tp6473
(I01
I0
tp6474
tp6475
(I00
S'0 2'
p6476
(I01
I0
tp6477
(I01
I2
tp6478
tp6479
tp6480
(I01
I0
tp6481
tp6482
tp6483
tp6484
tp6485
(I00
S'1 1'
p6486
(I01
I1
tp6487
(I00
S'1 1'
p6488
(I00
S'0 1'
p6489
(I01
I2
tp6490
(I01
I0
tp6491
tp6492
(I00
S'0 2'
p6493
(I01
I2
tp6494
(I01
I2
tp6495
tp6496
tp6497
tp6498
tp6499
(I00
S'1 1'
p6500
(I00
S'1 1'
p6501
(I01
I0
tp6502
(I00
S'1 1'
p6503
(I01
I1
tp6504
(I00
S'1 2'
p6505
(I01
I0
tp6506
(I01
I1
tp6507
tp6508
tp6509
tp6510
(I01
I1
tp6511
tp6512
tp6513
tp6514
tp6515
bag1
(tRp6516
(S'-12.5664 12.5664 -50 50 '
p6517
I2
F0.8500000238418579
F0.10000000149011612
F0.25
(I00
S'1 1'
p6518
(I00
S'1 2'
p6519
(I00
S'1 2'
p6520
(I01
I2
tp6521
(I01
I2
tp6522
tp6523
(I00
S'0 2'
p6524
(I00
S'0 1'
p6525
(I00
S'1 2'
p6526
(I00
S'0 2'
p6527
(I01
I1
tp6528
(I00
S'1 2'
p6529
(I01
I2
tp6530
(I00
S'0 1'
p6531
(I01
I2
tp6532
(I00
S'1 2'
p6533
(I00
S'0 2'
p6534
(I01
I2
tp6535
(I01
I2
tp6536
tp6537
(I01
I2
tp6538
tp6539
tp6540
tp6541
tp6542
(I01
I0
tp6543
tp6544
(I00
S'1 2'
p6545
(I01
I2
tp6546
(I00
S'0 1'
p6547
(I01
I0
tp6548
(I00
S'1 1'
p6549
(I01
I1
tp6550
(I01
I1
tp6551
tp6552
tp6553
tp6554
tp6555
(I00
S'1 1'
p6556
(I00
S'1 2'
p6557
(I00
S'0 1'
p6558
(I01
I0
tp6559
(I00
S'1 2'
p6560
(I01
I0
tp6561
(I01
I0
tp6562
tp6563
tp6564
(I01
I2
tp6565
tp6566
(I00
S'1 2'
p6567
(I01
I1
tp6568
(I01
I0
tp6569
tp6570
tp6571
tp6572
tp6573
(I00
S'0 2'
p6574
(I00
S'1 2'
p6575
(I00
S'0 1'
p6576
(I01
I1
tp6577
(I00
S'1 2'
p6578
(I00
S'1 2'
p6579
(I00
S'1 1'
p6580
(I01
I2
tp6581
(I01
I2
tp6582
tp6583
(I00
S'1 1'
p6584
(I01
I2
tp6585
(I00
S'0 2'
p6586
(I01
I2
tp6587
(I00
S'1 2'
p6588
(I01
I0
tp6589
(I01
I0
tp6590
tp6591
tp6592
tp6593
tp6594
(I00
S'1 1'
p6595
(I00
S'1 1'
p6596
(I01
I2
tp6597
(I01
I0
tp6598
tp6599
(I00
S'0 2'
p6600
(I00
S'1 2'
p6601
(I00
S'0 2'
p6602
(I00
S'0 1'
p6603
(I01
I0
tp6604
(I01
I0
tp6605
tp6606
(I01
I0
tp6607
tp6608
(I00
S'0 2'
p6609
(I01
I0
tp6610
(I01
I2
tp6611
tp6612
tp6613
(I01
I0
tp6614
tp6615
tp6616
tp6617
tp6618
(I00
S'1 1'
p6619
(I01
I1
tp6620
(I00
S'1 1'
p6621
(I00
S'0 1'
p6622
(I01
I2
tp6623
(I01
I0
tp6624
tp6625
(I00
S'0 2'
p6626
(I01
I2
tp6627
(I01
I2
tp6628
tp6629
tp6630
tp6631
tp6632
(I00
S'1 1'
p6633
(I00
S'1 1'
p6634
(I01
I0
tp6635
(I00
S'1 1'
p6636
(I01
I1
tp6637
(I00
S'1 2'
p6638
(I01
I0
tp6639
(I01
I1
tp6640
tp6641
tp6642
tp6643
(I01
I1
tp6644
tp6645
tp6646
tp6647
tp6648
ba.cnumpy.core.multiarray
_reconstruct
p6649
(cnumpy
ndarray
p6650
(I0
tp6651
S'b'
p6652
tp6653
Rp6654
(I1
(I50
tp6655
cnumpy
dtype
p6656
(S'f8'
p6657
I0
I1
tp6658
Rp6659
(I3
S'<'
p6660
NNNI-1
I-1
I0
tp6661
bI00
S'\xf4E\xc7\xdc\xc3\x8e>?|\'\xb6N\xa0LP?\x96\x83\'\x01YNP?\x82>(2\xa3OP?\x0f\x14\xcfNg\xc1P?\x15\x1ce5l\xc1P?\xd7\xdf?\xa0n\xc1P?\xcd\xcf0"o\xc1P?\x80\xd2S\x94p\xc1P?\xcd\x1a\xd9\xecp\xc1P?\x94D\x97\xf6p\xc1P?e\x83\x9b*q\xc1P?\xe9\xc9yKq\xc1P?mV\xdb\xdbr\xc1P?n63\x89s\xc1P?n63\x89s\xc1P?\x9f\x15\xc5\x05t\xc1P?\xf8\x9d\xfe{u\xc1P?Tlf\xd2u\xc1P?#T\xb7jv\xc1P?\x1d\xb1\\ov\xc1P?\xcd\x90p\x95v\xc1P?\x14bh\xa0v\xc1P??9\xba+x\xc1P?j:\xee\x8fx\xc1P?K\x96\xe4\xbax\xc1P?\xe9D\xe6\xc0x\xc1P?\txF\xc6x\xc1P?\x9dw\xf4\xfdx\xc1P?\x82=\xaf2y\xc1P?\xb4\x93\x0f8y\xc1P?\x1en\x08v}\xc1P?M\x00\x15\x7f}\xc1P?\xc1u\x97\xde}\xc1P?\x1ezJ\xd9\x80\xc1P?\x1e\xfdv\xb0.\x82Q?\x01q\xc2\x90\xfa\x9bQ?\x05K\x90\x05\xd6\x9dQ?\xf9\xe5\xfe\x04\xe2\x9dQ?F\x9f|\x0f\x88\x03R?\xdc\x06\xae,\x90\x03R?\xd6\x03\xe0\x19\xf4\x03R?\xc2+\x93,\xf4\x03R?q\xc9\x88,\xf7\x03R?\xcc\xc5@\x86\xde\x08R?\xa1\x8c9$yzS?\xf8@\x8b\x81Q|S?\x0b$\xfeC\xa0\x80S?\xd3\xc8@\xab\x8bi\xde?\xd3\xc8@\xab\x8bi\xde?'
p6662
tp6663
b.