(lp0
cfernpy
fern2
p1
(tRp2
(S'-3.14159 3.14159 -3.14159 3.14159 '
p3
I2
F0.699999988079071
F0.10000000149011612
F0.15000000596046448
(I00
S'0 2'
p4
(I00
S'1 2'
p5
(I01
I2
tp6
(I00
S'1 1'
p7
(I00
S'0 2'
p8
(I00
S'1 2'
p9
(I01
I0
tp10
(I00
S'1 2'
p11
(I01
I0
tp12
(I01
I0
tp13
tp14
tp15
(I01
I2
tp16
tp17
(I00
S'1 1'
p18
(I01
I0
tp19
(I01
I0
tp20
tp21
tp22
tp23
(I00
S'1 2'
p24
(I00
S'0 1'
p25
(I00
S'0 2'
p26
(I00
S'1 1'
p27
(I01
I2
tp28
(I01
I1
tp29
tp30
(I01
I2
tp31
tp32
(I01
I1
tp33
tp34
(I01
I1
tp35
tp36
tp37
tp38
bag1
(tRp39
(S'-3.14159 3.14159 -3.14159 3.14159 '
p40
I2
F0.699999988079071
F0.10000000149011612
F0.15000000596046448
(I00
S'0 2'
p41
(I00
S'1 2'
p42
(I01
I2
tp43
(I00
S'1 1'
p44
(I00
S'0 1'
p45
(I00
S'1 2'
p46
(I01
I0
tp47
(I01
I0
tp48
tp49
(I01
I1
tp50
tp51
(I00
S'0 1'
p52
(I01
I1
tp53
(I01
I0
tp54
tp55
tp56
tp57
(I00
S'0 1'
p58
(I00
S'0 1'
p59
(I00
S'0 2'
p60
(I00
S'1 1'
p61
(I01
I1
tp62
(I01
I1
tp63
tp64
(I01
I2
tp65
tp66
(I00
S'0 2'
p67
(I01
I1
tp68
(I01
I1
tp69
tp70
tp71
(I00
S'0 2'
p72
(I00
S'0 2'
p73
(I01
I1
tp74
(I00
S'1 1'
p75
(I01
I2
tp76
(I01
I0
tp77
tp78
tp79
(I00
S'0 1'
p80
(I01
I2
tp81
(I01
I1
tp82
tp83
tp84
tp85
tp86
tp87
bag1
(tRp88
(S'-3.14159 3.14159 -3.14159 3.14159 '
p89
I2
F0.699999988079071
F0.10000000149011612
F0.15000000596046448
(I00
S'0 2'
p90
(I00
S'1 2'
p91
(I01
I2
tp92
(I00
S'1 1'
p93
(I00
S'0 1'
p94
(I00
S'1 2'
p95
(I01
I1
tp96
(I01
I1
tp97
tp98
(I01
I1
tp99
tp100
(I00
S'0 1'
p101
(I01
I1
tp102
(I01
I0
tp103
tp104
tp105
tp106
(I00
S'0 1'
p107
(I00
S'0 1'
p108
(I00
S'0 2'
p109
(I00
S'1 1'
p110
(I01
I1
tp111
(I01
I1
tp112
tp113
(I01
I2
tp114
tp115
(I00
S'0 2'
p116
(I01
I1
tp117
(I01
I1
tp118
tp119
tp120
(I00
S'0 2'
p121
(I00
S'0 2'
p122
(I01
I1
tp123
(I00
S'1 1'
p124
(I01
I2
tp125
(I01
I0
tp126
tp127
tp128
(I00
S'0 1'
p129
(I01
I2
tp130
(I01
I2
tp131
tp132
tp133
tp134
tp135
tp136
bag1
(tRp137
(S'-3.14159 3.14159 -3.14159 3.14159 '
p138
I2
F0.699999988079071
F0.10000000149011612
F0.15000000596046448
(I00
S'0 2'
p139
(I00
S'1 2'
p140
(I01
I2
tp141
(I00
S'1 1'
p142
(I00
S'0 2'
p143
(I00
S'1 2'
p144
(I01
I0
tp145
(I00
S'1 2'
p146
(I01
I0
tp147
(I01
I0
tp148
tp149
tp150
(I01
I2
tp151
tp152
(I00
S'1 1'
p153
(I01
I0
tp154
(I01
I0
tp155
tp156
tp157
tp158
(I00
S'1 2'
p159
(I00
S'0 1'
p160
(I00
S'0 2'
p161
(I00
S'1 1'
p162
(I01
I2
tp163
(I01
I1
tp164
tp165
(I01
I2
tp166
tp167
(I01
I1
tp168
tp169
(I01
I1
tp170
tp171
tp172
tp173
bag1
(tRp174
(S'-3.14159 3.14159 -3.14159 3.14159 '
p175
I2
F0.699999988079071
F0.10000000149011612
F0.15000000596046448
(I00
S'0 2'
p176
(I00
S'1 2'
p177
(I01
I2
tp178
(I00
S'1 1'
p179
(I00
S'0 1'
p180
(I00
S'1 2'
p181
(I01
I1
tp182
(I01
I1
tp183
tp184
(I01
I1
tp185
tp186
(I00
S'0 1'
p187
(I01
I0
tp188
(I01
I0
tp189
tp190
tp191
tp192
(I00
S'0 1'
p193
(I00
S'0 1'
p194
(I00
S'0 2'
p195
(I00
S'1 1'
p196
(I01
I0
tp197
(I01
I1
tp198
tp199
(I01
I2
tp200
tp201
(I00
S'0 2'
p202
(I01
I1
tp203
(I01
I1
tp204
tp205
tp206
(I00
S'0 2'
p207
(I00
S'0 2'
p208
(I01
I1
tp209
(I00
S'1 1'
p210
(I01
I1
tp211
(I01
I0
tp212
tp213
tp214
(I00
S'0 2'
p215
(I01
I2
tp216
(I01
I1
tp217
tp218
tp219
tp220
tp221
tp222
bag1
(tRp223
(S'-3.14159 3.14159 -3.14159 3.14159 '
p224
I2
F0.699999988079071
F0.10000000149011612
F0.15000000596046448
(I00
S'0 2'
p225
(I00
S'1 2'
p226
(I01
I2
tp227
(I00
S'1 1'
p228
(I00
S'0 1'
p229
(I00
S'1 2'
p230
(I01
I1
tp231
(I01
I1
tp232
tp233
(I01
I1
tp234
tp235
(I00
S'0 1'
p236
(I01
I0
tp237
(I01
I0
tp238
tp239
tp240
tp241
(I00
S'0 1'
p242
(I00
S'0 1'
p243
(I00
S'0 2'
p244
(I00
S'1 1'
p245
(I01
I1
tp246
(I01
I1
tp247
tp248
(I01
I2
tp249
tp250
(I00
S'0 2'
p251
(I01
I1
tp252
(I01
I1
tp253
tp254
tp255
(I00
S'0 2'
p256
(I00
S'0 2'
p257
(I01
I1
tp258
(I00
S'1 1'
p259
(I01
I1
tp260
(I01
I0
tp261
tp262
tp263
(I00
S'0 2'
p264
(I01
I2
tp265
(I01
I1
tp266
tp267
tp268
tp269
tp270
tp271
bag1
(tRp272
(S'-3.14159 3.14159 -3.14159 3.14159 '
p273
I2
F0.699999988079071
F0.10000000149011612
F0.15000000596046448
(I00
S'0 2'
p274
(I00
S'1 2'
p275
(I01
I2
tp276
(I00
S'1 1'
p277
(I00
S'0 1'
p278
(I00
S'1 2'
p279
(I01
I1
tp280
(I01
I1
tp281
tp282
(I01
I1
tp283
tp284
(I00
S'0 1'
p285
(I01
I1
tp286
(I01
I0
tp287
tp288
tp289
tp290
(I00
S'1 2'
p291
(I00
S'0 1'
p292
(I00
S'0 2'
p293
(I00
S'1 1'
p294
(I01
I1
tp295
(I01
I0
tp296
tp297
(I01
I2
tp298
tp299
(I01
I1
tp300
tp301
(I01
I1
tp302
tp303
tp304
tp305
bag1
(tRp306
(S'-3.14159 3.14159 -3.14159 3.14159 '
p307
I2
F0.699999988079071
F0.10000000149011612
F0.15000000596046448
(I00
S'0 1'
p308
(I00
S'0 2'
p309
(I01
I2
tp310
(I00
S'0 1'
p311
(I01
I0
tp312
(I00
S'0 1'
p313
(I01
I0
tp314
(I01
I0
tp315
tp316
tp317
tp318
(I00
S'0 2'
p319
(I00
S'0 1'
p320
(I00
S'0 2'
p321
(I00
S'1 1'
p322
(I01
I1
tp323
(I01
I2
tp324
tp325
(I00
S'1 1'
p326
(I01
I1
tp327
(I01
I2
tp328
tp329
tp330
(I01
I1
tp331
tp332
(I01
I1
tp333
tp334
tp335
tp336
bag1
(tRp337
(S'-3.14159 3.14159 -3.14159 3.14159 '
p338
I2
F0.699999988079071
F0.10000000149011612
F0.15000000596046448
(I00
S'0 2'
p339
(I00
S'1 2'
p340
(I01
I0
tp341
(I00
S'1 1'
p342
(I00
S'0 1'
p343
(I00
S'1 2'
p344
(I01
I0
tp345
(I01
I0
tp346
tp347
(I01
I1
tp348
tp349
(I00
S'0 1'
p350
(I01
I1
tp351
(I01
I0
tp352
tp353
tp354
tp355
(I00
S'0 1'
p356
(I00
S'0 1'
p357
(I00
S'0 2'
p358
(I00
S'1 1'
p359
(I01
I1
tp360
(I01
I1
tp361
tp362
(I00
S'0 1'
p363
(I01
I1
tp364
(I01
I2
tp365
tp366
tp367
(I00
S'0 2'
p368
(I01
I1
tp369
(I01
I1
tp370
tp371
tp372
(I00
S'0 2'
p373
(I00
S'0 2'
p374
(I01
I1
tp375
(I00
S'1 1'
p376
(I01
I2
tp377
(I01
I0
tp378
tp379
tp380
(I00
S'0 1'
p381
(I01
I2
tp382
(I01
I1
tp383
tp384
tp385
tp386
tp387
tp388
bag1
(tRp389
(S'-3.14159 3.14159 -3.14159 3.14159 '
p390
I2
F0.699999988079071
F0.10000000149011612
F0.15000000596046448
(I00
S'0 2'
p391
(I00
S'1 2'
p392
(I01
I2
tp393
(I00
S'1 1'
p394
(I00
S'0 1'
p395
(I00
S'1 2'
p396
(I01
I1
tp397
(I01
I1
tp398
tp399
(I01
I1
tp400
tp401
(I00
S'0 1'
p402
(I01
I0
tp403
(I01
I0
tp404
tp405
tp406
tp407
(I00
S'0 1'
p408
(I00
S'0 1'
p409
(I00
S'0 2'
p410
(I00
S'1 1'
p411
(I01
I1
tp412
(I01
I1
tp413
tp414
(I01
I2
tp415
tp416
(I00
S'0 2'
p417
(I01
I1
tp418
(I01
I1
tp419
tp420
tp421
(I00
S'0 2'
p422
(I00
S'0 2'
p423
(I01
I1
tp424
(I00
S'1 1'
p425
(I01
I1
tp426
(I01
I0
tp427
tp428
tp429
(I00
S'0 2'
p430
(I01
I2
tp431
(I01
I1
tp432
tp433
tp434
tp435
tp436
tp437
bag1
(tRp438
(S'-3.14159 3.14159 -3.14159 3.14159 '
p439
I2
F0.699999988079071
F0.10000000149011612
F0.15000000596046448
(I00
S'0 2'
p440
(I00
S'1 2'
p441
(I01
I2
tp442
(I00
S'1 1'
p443
(I00
S'0 2'
p444
(I00
S'1 2'
p445
(I01
I0
tp446
(I00
S'1 2'
p447
(I01
I0
tp448
(I01
I0
tp449
tp450
tp451
(I01
I2
tp452
tp453
(I00
S'1 1'
p454
(I01
I0
tp455
(I01
I0
tp456
tp457
tp458
tp459
(I00
S'1 2'
p460
(I00
S'0 1'
p461
(I00
S'0 2'
p462
(I00
S'1 1'
p463
(I01
I1
tp464
(I01
I2
tp465
tp466
(I01
I2
tp467
tp468
(I01
I1
tp469
tp470
(I01
I1
tp471
tp472
tp473
tp474
bag1
(tRp475
(S'-3.14159 3.14159 -3.14159 3.14159 '
p476
I2
F0.699999988079071
F0.10000000149011612
F0.15000000596046448
(I00
S'0 2'
p477
(I00
S'1 2'
p478
(I01
I2
tp479
(I00
S'1 1'
p480
(I00
S'0 1'
p481
(I00
S'1 2'
p482
(I01
I0
tp483
(I01
I0
tp484
tp485
(I01
I1
tp486
tp487
(I00
S'0 1'
p488
(I01
I1
tp489
(I01
I0
tp490
tp491
tp492
tp493
(I00
S'0 1'
p494
(I00
S'0 1'
p495
(I00
S'0 2'
p496
(I00
S'1 1'
p497
(I01
I1
tp498
(I01
I1
tp499
tp500
(I01
I2
tp501
tp502
(I00
S'0 2'
p503
(I01
I1
tp504
(I01
I1
tp505
tp506
tp507
(I00
S'0 2'
p508
(I00
S'0 2'
p509
(I01
I1
tp510
(I00
S'1 1'
p511
(I01
I2
tp512
(I01
I0
tp513
tp514
tp515
(I00
S'0 1'
p516
(I01
I2
tp517
(I00
S'1 2'
p518
(I01
I1
tp519
(I01
I1
tp520
tp521
tp522
tp523
tp524
tp525
tp526
bag1
(tRp527
(S'-3.14159 3.14159 -3.14159 3.14159 '
p528
I2
F0.699999988079071
F0.10000000149011612
F0.15000000596046448
(I00
S'0 2'
p529
(I00
S'1 2'
p530
(I01
I2
tp531
(I00
S'0 1'
p532
(I00
S'0 1'
p533
(I00
S'1 2'
p534
(I01
I0
tp535
(I01
I1
tp536
tp537
(I00
S'0 1'
p538
(I01
I0
tp539
(I01
I1
tp540
tp541
tp542
(I00
S'0 1'
p543
(I01
I0
tp544
(I01
I0
tp545
tp546
tp547
tp548
(I00
S'1 2'
p549
(I00
S'0 1'
p550
(I00
S'0 2'
p551
(I00
S'1 1'
p552
(I01
I1
tp553
(I01
I1
tp554
tp555
(I01
I2
tp556
tp557
(I01
I1
tp558
tp559
(I01
I1
tp560
tp561
tp562
tp563
bag1
(tRp564
(S'-3.14159 3.14159 -3.14159 3.14159 '
p565
I2
F0.699999988079071
F0.10000000149011612
F0.15000000596046448
(I00
S'0 2'
p566
(I00
S'1 2'
p567
(I01
I2
tp568
(I00
S'1 1'
p569
(I00
S'0 2'
p570
(I00
S'1 2'
p571
(I01
I0
tp572
(I00
S'1 2'
p573
(I01
I0
tp574
(I01
I1
tp575
tp576
tp577
(I01
I2
tp578
tp579
(I00
S'1 1'
p580
(I01
I0
tp581
(I01
I0
tp582
tp583
tp584
tp585
(I00
S'1 2'
p586
(I00
S'0 1'
p587
(I00
S'0 2'
p588
(I00
S'1 1'
p589
(I01
I1
tp590
(I01
I1
tp591
tp592
(I01
I2
tp593
tp594
(I01
I1
tp595
tp596
(I01
I1
tp597
tp598
tp599
tp600
bag1
(tRp601
(S'-3.14159 3.14159 -3.14159 3.14159 '
p602
I2
F0.699999988079071
F0.10000000149011612
F0.15000000596046448
(I00
S'0 2'
p603
(I00
S'1 2'
p604
(I01
I2
tp605
(I00
S'1 1'
p606
(I00
S'0 1'
p607
(I00
S'1 2'
p608
(I01
I0
tp609
(I01
I0
tp610
tp611
(I01
I1
tp612
tp613
(I00
S'0 1'
p614
(I01
I1
tp615
(I01
I0
tp616
tp617
tp618
tp619
(I00
S'0 1'
p620
(I00
S'0 1'
p621
(I00
S'0 2'
p622
(I00
S'1 1'
p623
(I01
I1
tp624
(I01
I1
tp625
tp626
(I01
I2
tp627
tp628
(I00
S'0 2'
p629
(I01
I1
tp630
(I01
I1
tp631
tp632
tp633
(I00
S'0 2'
p634
(I00
S'0 2'
p635
(I01
I1
tp636
(I00
S'1 1'
p637
(I01
I2
tp638
(I01
I0
tp639
tp640
tp641
(I00
S'0 1'
p642
(I01
I2
tp643
(I01
I1
tp644
tp645
tp646
tp647
tp648
tp649
bag1
(tRp650
(S'-3.14159 3.14159 -3.14159 3.14159 '
p651
I2
F0.699999988079071
F0.10000000149011612
F0.15000000596046448
(I00
S'0 2'
p652
(I00
S'1 2'
p653
(I01
I2
tp654
(I00
S'0 1'
p655
(I00
S'0 1'
p656
(I00
S'1 2'
p657
(I01
I0
tp658
(I01
I1
tp659
tp660
(I00
S'0 1'
p661
(I01
I0
tp662
(I01
I0
tp663
tp664
tp665
(I00
S'0 1'
p666
(I01
I1
tp667
(I01
I0
tp668
tp669
tp670
tp671
(I00
S'0 2'
p672
(I00
S'0 1'
p673
(I00
S'0 2'
p674
(I00
S'1 1'
p675
(I01
I1
tp676
(I01
I1
tp677
tp678
(I01
I2
tp679
tp680
(I01
I1
tp681
tp682
(I01
I1
tp683
tp684
tp685
tp686
bag1
(tRp687
(S'-3.14159 3.14159 -3.14159 3.14159 '
p688
I2
F0.699999988079071
F0.10000000149011612
F0.15000000596046448
(I00
S'0 2'
p689
(I00
S'1 2'
p690
(I01
I2
tp691
(I00
S'0 1'
p692
(I00
S'0 1'
p693
(I00
S'1 2'
p694
(I01
I0
tp695
(I01
I1
tp696
tp697
(I00
S'0 1'
p698
(I01
I0
tp699
(I01
I1
tp700
tp701
tp702
(I00
S'0 1'
p703
(I01
I2
tp704
(I01
I0
tp705
tp706
tp707
tp708
(I00
S'0 1'
p709
(I00
S'0 1'
p710
(I00
S'0 2'
p711
(I00
S'1 1'
p712
(I01
I1
tp713
(I01
I2
tp714
tp715
(I01
I2
tp716
tp717
(I01
I1
tp718
tp719
(I00
S'0 2'
p720
(I00
S'0 2'
p721
(I01
I1
tp722
(I00
S'1 1'
p723
(I01
I2
tp724
(I01
I0
tp725
tp726
tp727
(I00
S'0 1'
p728
(I01
I1
tp729
(I01
I1
tp730
tp731
tp732
tp733
tp734
tp735
bag1
(tRp736
(S'-3.14159 3.14159 -3.14159 3.14159 '
p737
I2
F0.699999988079071
F0.10000000149011612
F0.15000000596046448
(I00
S'0 2'
p738
(I00
S'1 2'
p739
(I01
I2
tp740
(I00
S'1 1'
p741
(I00
S'0 1'
p742
(I00
S'1 2'
p743
(I01
I1
tp744
(I01
I1
tp745
tp746
(I01
I1
tp747
tp748
(I00
S'0 1'
p749
(I01
I1
tp750
(I01
I0
tp751
tp752
tp753
tp754
(I00
S'0 1'
p755
(I00
S'0 1'
p756
(I00
S'0 2'
p757
(I00
S'1 1'
p758
(I01
I1
tp759
(I01
I1
tp760
tp761
(I01
I2
tp762
tp763
(I00
S'0 2'
p764
(I01
I1
tp765
(I01
I2
tp766
tp767
tp768
(I00
S'0 2'
p769
(I01
I2
tp770
(I00
S'0 1'
p771
(I01
I2
tp772
(I01
I1
tp773
tp774
tp775
tp776
tp777
tp778
bag1
(tRp779
(S'-3.14159 3.14159 -3.14159 3.14159 '
p780
I2
F0.699999988079071
F0.10000000149011612
F0.15000000596046448
(I00
S'0 2'
p781
(I00
S'1 2'
p782
(I01
I2
tp783
(I01
I0
tp784
tp785
(I00
S'0 1'
p786
(I00
S'0 1'
p787
(I00
S'0 2'
p788
(I00
S'1 1'
p789
(I01
I1
tp790
(I01
I1
tp791
tp792
(I01
I2
tp793
tp794
(I00
S'0 2'
p795
(I01
I1
tp796
(I01
I1
tp797
tp798
tp799
(I00
S'0 2'
p800
(I00
S'0 2'
p801
(I01
I1
tp802
(I00
S'1 1'
p803
(I01
I2
tp804
(I01
I0
tp805
tp806
tp807
(I00
S'0 1'
p808
(I01
I2
tp809
(I01
I1
tp810
tp811
tp812
tp813
tp814
tp815
bag1
(tRp816
(S'-3.14159 3.14159 -3.14159 3.14159 '
p817
I2
F0.699999988079071
F0.10000000149011612
F0.15000000596046448
(I00
S'0 2'
p818
(I00
S'1 2'
p819
(I01
I2
tp820
(I00
S'1 1'
p821
(I00
S'0 1'
p822
(I00
S'1 2'
p823
(I01
I1
tp824
(I01
I1
tp825
tp826
(I01
I1
tp827
tp828
(I00
S'0 1'
p829
(I01
I1
tp830
(I01
I0
tp831
tp832
tp833
tp834
(I00
S'1 2'
p835
(I00
S'0 1'
p836
(I00
S'0 2'
p837
(I00
S'1 1'
p838
(I01
I1
tp839
(I01
I1
tp840
tp841
(I01
I2
tp842
tp843
(I01
I1
tp844
tp845
(I01
I1
tp846
tp847
tp848
tp849
bag1
(tRp850
(S'-3.14159 3.14159 -3.14159 3.14159 '
p851
I2
F0.699999988079071
F0.10000000149011612
F0.15000000596046448
(I00
S'0 2'
p852
(I00
S'1 2'
p853
(I01
I2
tp854
(I00
S'1 1'
p855
(I00
S'0 1'
p856
(I00
S'1 2'
p857
(I01
I1
tp858
(I01
I1
tp859
tp860
(I01
I1
tp861
tp862
(I00
S'0 1'
p863
(I01
I0
tp864
(I01
I0
tp865
tp866
tp867
tp868
(I00
S'0 1'
p869
(I00
S'0 1'
p870
(I00
S'0 2'
p871
(I00
S'1 1'
p872
(I01
I1
tp873
(I01
I1
tp874
tp875
(I01
I2
tp876
tp877
(I00
S'0 2'
p878
(I01
I1
tp879
(I01
I1
tp880
tp881
tp882
(I00
S'0 2'
p883
(I00
S'0 2'
p884
(I01
I1
tp885
(I00
S'1 1'
p886
(I01
I1
tp887
(I01
I0
tp888
tp889
tp890
(I00
S'0 2'
p891
(I01
I2
tp892
(I01
I1
tp893
tp894
tp895
tp896
tp897
tp898
bag1
(tRp899
(S'-3.14159 3.14159 -3.14159 3.14159 '
p900
I2
F0.699999988079071
F0.10000000149011612
F0.15000000596046448
(I00
S'0 2'
p901
(I00
S'1 2'
p902
(I01
I2
tp903
(I00
S'1 1'
p904
(I00
S'0 1'
p905
(I00
S'1 2'
p906
(I01
I0
tp907
(I01
I0
tp908
tp909
(I01
I1
tp910
tp911
(I00
S'0 1'
p912
(I01
I1
tp913
(I01
I0
tp914
tp915
tp916
tp917
(I00
S'0 1'
p918
(I00
S'0 1'
p919
(I00
S'0 2'
p920
(I00
S'1 1'
p921
(I01
I1
tp922
(I01
I1
tp923
tp924
(I01
I2
tp925
tp926
(I00
S'0 2'
p927
(I01
I1
tp928
(I01
I1
tp929
tp930
tp931
(I00
S'0 2'
p932
(I00
S'0 2'
p933
(I01
I1
tp934
(I00
S'1 1'
p935
(I01
I2
tp936
(I01
I0
tp937
tp938
tp939
(I00
S'0 1'
p940
(I01
I2
tp941
(I01
I1
tp942
tp943
tp944
tp945
tp946
tp947
bag1
(tRp948
(S'-3.14159 3.14159 -3.14159 3.14159 '
p949
I2
F0.699999988079071
F0.10000000149011612
F0.15000000596046448
(I00
S'0 2'
p950
(I00
S'1 2'
p951
(I01
I2
tp952
(I00
S'1 1'
p953
(I00
S'0 1'
p954
(I00
S'1 2'
p955
(I01
I1
tp956
(I01
I1
tp957
tp958
(I01
I1
tp959
tp960
(I00
S'0 1'
p961
(I01
I0
tp962
(I01
I0
tp963
tp964
tp965
tp966
(I00
S'0 1'
p967
(I00
S'0 1'
p968
(I00
S'0 2'
p969
(I00
S'1 1'
p970
(I01
I1
tp971
(I01
I1
tp972
tp973
(I01
I2
tp974
tp975
(I00
S'0 2'
p976
(I01
I1
tp977
(I01
I1
tp978
tp979
tp980
(I00
S'0 2'
p981
(I00
S'0 2'
p982
(I01
I1
tp983
(I00
S'1 1'
p984
(I01
I1
tp985
(I01
I0
tp986
tp987
tp988
(I00
S'0 2'
p989
(I01
I2
tp990
(I01
I1
tp991
tp992
tp993
tp994
tp995
tp996
bag1
(tRp997
(S'-3.14159 3.14159 -3.14159 3.14159 '
p998
I2
F0.699999988079071
F0.10000000149011612
F0.15000000596046448
(I00
S'0 2'
p999
(I00
S'1 2'
p1000
(I01
I2
tp1001
(I00
S'1 1'
p1002
(I00
S'0 1'
p1003
(I00
S'1 2'
p1004
(I01
I0
tp1005
(I01
I0
tp1006
tp1007
(I01
I1
tp1008
tp1009
(I00
S'0 1'
p1010
(I01
I1
tp1011
(I01
I0
tp1012
tp1013
tp1014
tp1015
(I00
S'0 1'
p1016
(I00
S'0 1'
p1017
(I00
S'0 2'
p1018
(I00
S'1 1'
p1019
(I01
I1
tp1020
(I01
I1
tp1021
tp1022
(I00
S'0 1'
p1023
(I01
I1
tp1024
(I01
I2
tp1025
tp1026
tp1027
(I00
S'0 2'
p1028
(I01
I1
tp1029
(I01
I1
tp1030
tp1031
tp1032
(I00
S'0 2'
p1033
(I00
S'0 2'
p1034
(I01
I1
tp1035
(I00
S'1 1'
p1036
(I01
I2
tp1037
(I01
I0
tp1038
tp1039
tp1040
(I00
S'0 1'
p1041
(I01
I2
tp1042
(I01
I1
tp1043
tp1044
tp1045
tp1046
tp1047
tp1048
bag1
(tRp1049
(S'-3.14159 3.14159 -3.14159 3.14159 '
p1050
I2
F0.699999988079071
F0.10000000149011612
F0.15000000596046448
(I00
S'0 2'
p1051
(I00
S'1 2'
p1052
(I01
I2
tp1053
(I00
S'1 1'
p1054
(I00
S'0 2'
p1055
(I00
S'1 2'
p1056
(I01
I1
tp1057
(I00
S'1 2'
p1058
(I01
I0
tp1059
(I01
I0
tp1060
tp1061
tp1062
(I01
I2
tp1063
tp1064
(I00
S'1 1'
p1065
(I01
I0
tp1066
(I01
I0
tp1067
tp1068
tp1069
tp1070
(I00
S'1 2'
p1071
(I00
S'0 1'
p1072
(I00
S'0 2'
p1073
(I00
S'1 1'
p1074
(I01
I2
tp1075
(I01
I1
tp1076
tp1077
(I01
I2
tp1078
tp1079
(I01
I1
tp1080
tp1081
(I01
I1
tp1082
tp1083
tp1084
tp1085
bag1
(tRp1086
(S'-3.14159 3.14159 -3.14159 3.14159 '
p1087
I2
F0.699999988079071
F0.10000000149011612
F0.15000000596046448
(I00
S'0 2'
p1088
(I00
S'1 2'
p1089
(I01
I2
tp1090
(I00
S'1 1'
p1091
(I00
S'0 1'
p1092
(I00
S'1 2'
p1093
(I01
I1
tp1094
(I00
S'1 2'
p1095
(I01
I0
tp1096
(I01
I0
tp1097
tp1098
tp1099
(I01
I1
tp1100
tp1101
(I00
S'0 1'
p1102
(I01
I1
tp1103
(I01
I0
tp1104
tp1105
tp1106
tp1107
(I00
S'0 1'
p1108
(I00
S'0 1'
p1109
(I00
S'0 2'
p1110
(I00
S'1 1'
p1111
(I01
I1
tp1112
(I01
I1
tp1113
tp1114
(I01
I2
tp1115
tp1116
(I00
S'0 2'
p1117
(I01
I1
tp1118
(I01
I2
tp1119
tp1120
tp1121
(I00
S'0 2'
p1122
(I01
I2
tp1123
(I00
S'0 1'
p1124
(I01
I2
tp1125
(I01
I1
tp1126
tp1127
tp1128
tp1129
tp1130
tp1131
bag1
(tRp1132
(S'-3.14159 3.14159 -3.14159 3.14159 '
p1133
I2
F0.699999988079071
F0.10000000149011612
F0.15000000596046448
(I00
S'0 2'
p1134
(I00
S'1 2'
p1135
(I01
I2
tp1136
(I00
S'1 1'
p1137
(I00
S'0 1'
p1138
(I00
S'1 2'
p1139
(I01
I1
tp1140
(I01
I1
tp1141
tp1142
(I01
I1
tp1143
tp1144
(I00
S'0 1'
p1145
(I01
I0
tp1146
(I01
I0
tp1147
tp1148
tp1149
tp1150
(I00
S'0 1'
p1151
(I00
S'0 1'
p1152
(I00
S'0 2'
p1153
(I00
S'1 1'
p1154
(I01
I1
tp1155
(I01
I1
tp1156
tp1157
(I01
I2
tp1158
tp1159
(I00
S'0 2'
p1160
(I01
I1
tp1161
(I01
I1
tp1162
tp1163
tp1164
(I00
S'0 2'
p1165
(I00
S'0 2'
p1166
(I01
I1
tp1167
(I00
S'1 1'
p1168
(I01
I1
tp1169
(I01
I0
tp1170
tp1171
tp1172
(I00
S'0 2'
p1173
(I01
I2
tp1174
(I01
I1
tp1175
tp1176
tp1177
tp1178
tp1179
tp1180
bag1
(tRp1181
(S'-3.14159 3.14159 -3.14159 3.14159 '
p1182
I2
F0.699999988079071
F0.10000000149011612
F0.15000000596046448
(I00
S'0 2'
p1183
(I00
S'1 2'
p1184
(I01
I2
tp1185
(I00
S'1 1'
p1186
(I00
S'0 1'
p1187
(I00
S'1 2'
p1188
(I01
I0
tp1189
(I01
I0
tp1190
tp1191
(I01
I1
tp1192
tp1193
(I00
S'0 1'
p1194
(I01
I1
tp1195
(I01
I0
tp1196
tp1197
tp1198
tp1199
(I00
S'0 1'
p1200
(I00
S'0 1'
p1201
(I00
S'0 2'
p1202
(I00
S'1 1'
p1203
(I01
I1
tp1204
(I01
I1
tp1205
tp1206
(I01
I2
tp1207
tp1208
(I00
S'0 2'
p1209
(I01
I1
tp1210
(I01
I2
tp1211
tp1212
tp1213
(I00
S'0 2'
p1214
(I01
I2
tp1215
(I00
S'0 1'
p1216
(I01
I2
tp1217
(I01
I0
tp1218
tp1219
tp1220
tp1221
tp1222
tp1223
bag1
(tRp1224
(S'-3.14159 3.14159 -3.14159 3.14159 '
p1225
I2
F0.699999988079071
F0.10000000149011612
F0.15000000596046448
(I00
S'0 2'
p1226
(I00
S'1 2'
p1227
(I01
I2
tp1228
(I00
S'1 1'
p1229
(I00
S'0 1'
p1230
(I00
S'1 2'
p1231
(I01
I1
tp1232
(I01
I0
tp1233
tp1234
(I01
I1
tp1235
tp1236
(I00
S'0 1'
p1237
(I01
I1
tp1238
(I01
I0
tp1239
tp1240
tp1241
tp1242
(I00
S'1 2'
p1243
(I00
S'0 1'
p1244
(I00
S'0 2'
p1245
(I00
S'1 1'
p1246
(I01
I1
tp1247
(I01
I1
tp1248
tp1249
(I01
I2
tp1250
tp1251
(I01
I1
tp1252
tp1253
(I01
I1
tp1254
tp1255
tp1256
tp1257
bag1
(tRp1258
(S'-3.14159 3.14159 -3.14159 3.14159 '
p1259
I2
F0.699999988079071
F0.10000000149011612
F0.15000000596046448
(I00
S'0 2'
p1260
(I00
S'1 2'
p1261
(I01
I2
tp1262
(I00
S'1 1'
p1263
(I00
S'0 2'
p1264
(I00
S'1 2'
p1265
(I01
I0
tp1266
(I00
S'1 2'
p1267
(I01
I1
tp1268
(I01
I0
tp1269
tp1270
tp1271
(I01
I2
tp1272
tp1273
(I00
S'1 1'
p1274
(I01
I0
tp1275
(I01
I0
tp1276
tp1277
tp1278
tp1279
(I00
S'1 2'
p1280
(I00
S'0 1'
p1281
(I00
S'0 2'
p1282
(I00
S'1 1'
p1283
(I01
I1
tp1284
(I01
I2
tp1285
tp1286
(I01
I2
tp1287
tp1288
(I01
I1
tp1289
tp1290
(I01
I1
tp1291
tp1292
tp1293
tp1294
bag1
(tRp1295
(S'-3.14159 3.14159 -3.14159 3.14159 '
p1296
I2
F0.699999988079071
F0.10000000149011612
F0.15000000596046448
(I00
S'0 2'
p1297
(I00
S'1 2'
p1298
(I01
I2
tp1299
(I00
S'1 1'
p1300
(I00
S'0 1'
p1301
(I00
S'1 2'
p1302
(I01
I0
tp1303
(I01
I0
tp1304
tp1305
(I01
I1
tp1306
tp1307
(I00
S'0 1'
p1308
(I01
I1
tp1309
(I01
I0
tp1310
tp1311
tp1312
tp1313
(I00
S'0 1'
p1314
(I00
S'0 1'
p1315
(I00
S'0 2'
p1316
(I00
S'1 1'
p1317
(I01
I1
tp1318
(I01
I1
tp1319
tp1320
(I00
S'0 1'
p1321
(I01
I2
tp1322
(I01
I2
tp1323
tp1324
tp1325
(I00
S'0 2'
p1326
(I01
I1
tp1327
(I01
I1
tp1328
tp1329
tp1330
(I00
S'0 2'
p1331
(I00
S'0 2'
p1332
(I01
I1
tp1333
(I00
S'1 1'
p1334
(I01
I0
tp1335
(I01
I0
tp1336
tp1337
tp1338
(I00
S'0 1'
p1339
(I01
I2
tp1340
(I01
I1
tp1341
tp1342
tp1343
tp1344
tp1345
tp1346
bag1
(tRp1347
(S'-3.14159 3.14159 -3.14159 3.14159 '
p1348
I2
F0.699999988079071
F0.10000000149011612
F0.15000000596046448
(I00
S'0 2'
p1349
(I00
S'1 2'
p1350
(I01
I2
tp1351
(I00
S'1 1'
p1352
(I00
S'0 1'
p1353
(I00
S'1 2'
p1354
(I01
I1
tp1355
(I00
S'1 2'
p1356
(I01
I0
tp1357
(I01
I0
tp1358
tp1359
tp1360
(I01
I1
tp1361
tp1362
(I00
S'0 1'
p1363
(I01
I1
tp1364
(I01
I0
tp1365
tp1366
tp1367
tp1368
(I00
S'0 1'
p1369
(I00
S'0 1'
p1370
(I00
S'0 2'
p1371
(I00
S'1 1'
p1372
(I01
I1
tp1373
(I01
I1
tp1374
tp1375
(I01
I2
tp1376
tp1377
(I00
S'0 2'
p1378
(I01
I1
tp1379
(I01
I2
tp1380
tp1381
tp1382
(I00
S'0 2'
p1383
(I01
I2
tp1384
(I00
S'0 1'
p1385
(I01
I2
tp1386
(I01
I1
tp1387
tp1388
tp1389
tp1390
tp1391
tp1392
bag1
(tRp1393
(S'-3.14159 3.14159 -3.14159 3.14159 '
p1394
I2
F0.699999988079071
F0.10000000149011612
F0.15000000596046448
(I00
S'0 2'
p1395
(I00
S'1 2'
p1396
(I01
I2
tp1397
(I00
S'1 1'
p1398
(I00
S'0 1'
p1399
(I00
S'1 2'
p1400
(I01
I1
tp1401
(I01
I0
tp1402
tp1403
(I01
I1
tp1404
tp1405
(I00
S'0 1'
p1406
(I01
I1
tp1407
(I01
I0
tp1408
tp1409
tp1410
tp1411
(I00
S'0 1'
p1412
(I00
S'0 1'
p1413
(I00
S'0 2'
p1414
(I00
S'1 1'
p1415
(I01
I1
tp1416
(I01
I1
tp1417
tp1418
(I00
S'0 1'
p1419
(I01
I2
tp1420
(I01
I2
tp1421
tp1422
tp1423
(I00
S'0 2'
p1424
(I01
I1
tp1425
(I01
I1
tp1426
tp1427
tp1428
(I00
S'0 2'
p1429
(I00
S'0 2'
p1430
(I01
I1
tp1431
(I00
S'1 1'
p1432
(I01
I2
tp1433
(I01
I0
tp1434
tp1435
tp1436
(I00
S'0 1'
p1437
(I01
I2
tp1438
(I01
I1
tp1439
tp1440
tp1441
tp1442
tp1443
tp1444
bag1
(tRp1445
(S'-3.14159 3.14159 -3.14159 3.14159 '
p1446
I2
F0.699999988079071
F0.10000000149011612
F0.15000000596046448
(I00
S'0 2'
p1447
(I00
S'1 2'
p1448
(I01
I2
tp1449
(I00
S'1 1'
p1450
(I00
S'0 1'
p1451
(I00
S'1 2'
p1452
(I01
I2
tp1453
(I01
I1
tp1454
tp1455
(I01
I1
tp1456
tp1457
(I00
S'0 1'
p1458
(I01
I0
tp1459
(I01
I0
tp1460
tp1461
tp1462
tp1463
(I00
S'0 1'
p1464
(I00
S'0 1'
p1465
(I00
S'0 2'
p1466
(I00
S'1 1'
p1467
(I01
I1
tp1468
(I01
I1
tp1469
tp1470
(I01
I2
tp1471
tp1472
(I00
S'0 2'
p1473
(I01
I1
tp1474
(I01
I1
tp1475
tp1476
tp1477
(I00
S'0 2'
p1478
(I00
S'0 2'
p1479
(I01
I1
tp1480
(I00
S'1 1'
p1481
(I01
I1
tp1482
(I01
I0
tp1483
tp1484
tp1485
(I00
S'0 2'
p1486
(I01
I2
tp1487
(I01
I1
tp1488
tp1489
tp1490
tp1491
tp1492
tp1493
bag1
(tRp1494
(S'-3.14159 3.14159 -3.14159 3.14159 '
p1495
I2
F0.699999988079071
F0.10000000149011612
F0.15000000596046448
(I00
S'0 2'
p1496
(I00
S'1 2'
p1497
(I01
I2
tp1498
(I00
S'1 1'
p1499
(I00
S'0 1'
p1500
(I00
S'1 2'
p1501
(I01
I1
tp1502
(I01
I1
tp1503
tp1504
(I01
I1
tp1505
tp1506
(I00
S'0 1'
p1507
(I01
I0
tp1508
(I01
I0
tp1509
tp1510
tp1511
tp1512
(I00
S'0 1'
p1513
(I00
S'0 1'
p1514
(I00
S'0 2'
p1515
(I00
S'1 1'
p1516
(I01
I1
tp1517
(I01
I1
tp1518
tp1519
(I01
I2
tp1520
tp1521
(I00
S'0 2'
p1522
(I01
I1
tp1523
(I01
I1
tp1524
tp1525
tp1526
(I00
S'0 2'
p1527
(I00
S'0 2'
p1528
(I01
I1
tp1529
(I00
S'1 1'
p1530
(I01
I1
tp1531
(I01
I0
tp1532
tp1533
tp1534
(I00
S'0 2'
p1535
(I01
I2
tp1536
(I01
I1
tp1537
tp1538
tp1539
tp1540
tp1541
tp1542
bag1
(tRp1543
(S'-3.14159 3.14159 -3.14159 3.14159 '
p1544
I2
F0.699999988079071
F0.10000000149011612
F0.15000000596046448
(I00
S'0 2'
p1545
(I00
S'1 2'
p1546
(I01
I2
tp1547
(I00
S'1 1'
p1548
(I00
S'0 1'
p1549
(I00
S'1 2'
p1550
(I01
I0
tp1551
(I01
I0
tp1552
tp1553
(I01
I1
tp1554
tp1555
(I00
S'0 1'
p1556
(I01
I1
tp1557
(I01
I0
tp1558
tp1559
tp1560
tp1561
(I00
S'0 1'
p1562
(I00
S'0 1'
p1563
(I00
S'0 2'
p1564
(I00
S'1 1'
p1565
(I01
I1
tp1566
(I01
I1
tp1567
tp1568
(I01
I2
tp1569
tp1570
(I00
S'0 2'
p1571
(I01
I1
tp1572
(I01
I1
tp1573
tp1574
tp1575
(I00
S'0 2'
p1576
(I00
S'0 2'
p1577
(I01
I1
tp1578
(I00
S'1 1'
p1579
(I01
I2
tp1580
(I01
I0
tp1581
tp1582
tp1583
(I00
S'0 1'
p1584
(I01
I2
tp1585
(I01
I1
tp1586
tp1587
tp1588
tp1589
tp1590
tp1591
bag1
(tRp1592
(S'-3.14159 3.14159 -3.14159 3.14159 '
p1593
I2
F0.699999988079071
F0.10000000149011612
F0.15000000596046448
(I00
S'0 2'
p1594
(I00
S'1 2'
p1595
(I01
I2
tp1596
(I00
S'1 1'
p1597
(I00
S'0 1'
p1598
(I00
S'1 2'
p1599
(I01
I1
tp1600
(I01
I1
tp1601
tp1602
(I01
I1
tp1603
tp1604
(I00
S'0 1'
p1605
(I01
I1
tp1606
(I01
I0
tp1607
tp1608
tp1609
tp1610
(I00
S'1 2'
p1611
(I00
S'0 1'
p1612
(I00
S'0 2'
p1613
(I00
S'1 1'
p1614
(I01
I1
tp1615
(I01
I1
tp1616
tp1617
(I01
I2
tp1618
tp1619
(I01
I1
tp1620
tp1621
(I01
I1
tp1622
tp1623
tp1624
tp1625
bag1
(tRp1626
(S'-3.14159 3.14159 -3.14159 3.14159 '
p1627
I2
F0.699999988079071
F0.10000000149011612
F0.15000000596046448
(I00
S'0 2'
p1628
(I00
S'1 2'
p1629
(I01
I2
tp1630
(I00
S'1 1'
p1631
(I00
S'0 1'
p1632
(I00
S'1 2'
p1633
(I01
I1
tp1634
(I01
I1
tp1635
tp1636
(I01
I1
tp1637
tp1638
(I00
S'0 1'
p1639
(I01
I2
tp1640
(I01
I0
tp1641
tp1642
tp1643
tp1644
(I00
S'0 1'
p1645
(I00
S'0 1'
p1646
(I00
S'0 2'
p1647
(I00
S'1 1'
p1648
(I01
I1
tp1649
(I01
I1
tp1650
tp1651
(I01
I2
tp1652
tp1653
(I00
S'0 2'
p1654
(I01
I1
tp1655
(I01
I1
tp1656
tp1657
tp1658
(I00
S'0 2'
p1659
(I00
S'0 2'
p1660
(I01
I1
tp1661
(I00
S'1 1'
p1662
(I01
I2
tp1663
(I01
I0
tp1664
tp1665
tp1666
(I00
S'0 1'
p1667
(I01
I2
tp1668
(I01
I1
tp1669
tp1670
tp1671
tp1672
tp1673
tp1674
bag1
(tRp1675
(S'-3.14159 3.14159 -3.14159 3.14159 '
p1676
I2
F0.699999988079071
F0.10000000149011612
F0.15000000596046448
(I00
S'0 1'
p1677
(I00
S'0 2'
p1678
(I01
I2
tp1679
(I00
S'0 1'
p1680
(I01
I0
tp1681
(I00
S'0 1'
p1682
(I01
I0
tp1683
(I01
I0
tp1684
tp1685
tp1686
tp1687
(I00
S'0 2'
p1688
(I00
S'0 1'
p1689
(I00
S'0 2'
p1690
(I00
S'1 1'
p1691
(I01
I1
tp1692
(I01
I2
tp1693
tp1694
(I00
S'1 1'
p1695
(I01
I0
tp1696
(I01
I2
tp1697
tp1698
tp1699
(I01
I1
tp1700
tp1701
(I00
S'0 2'
p1702
(I01
I1
tp1703
(I01
I1
tp1704
tp1705
tp1706
tp1707
tp1708
bag1
(tRp1709
(S'-3.14159 3.14159 -3.14159 3.14159 '
p1710
I2
F0.699999988079071
F0.10000000149011612
F0.15000000596046448
(I00
S'0 2'
p1711
(I00
S'1 2'
p1712
(I01
I2
tp1713
(I00
S'0 1'
p1714
(I00
S'0 1'
p1715
(I00
S'1 2'
p1716
(I01
I0
tp1717
(I01
I1
tp1718
tp1719
(I00
S'0 1'
p1720
(I01
I0
tp1721
(I01
I1
tp1722
tp1723
tp1724
(I00
S'0 1'
p1725
(I01
I2
tp1726
(I01
I0
tp1727
tp1728
tp1729
tp1730
(I00
S'0 1'
p1731
(I00
S'1 1'
p1732
(I00
S'0 2'
p1733
(I00
S'1 1'
p1734
(I01
I1
tp1735
(I01
I2
tp1736
tp1737
(I01
I2
tp1738
tp1739
(I01
I1
tp1740
tp1741
(I00
S'0 2'
p1742
(I00
S'0 2'
p1743
(I01
I1
tp1744
(I00
S'1 1'
p1745
(I01
I2
tp1746
(I01
I0
tp1747
tp1748
tp1749
(I00
S'0 1'
p1750
(I01
I1
tp1751
(I01
I1
tp1752
tp1753
tp1754
tp1755
tp1756
tp1757
bag1
(tRp1758
(S'-3.14159 3.14159 -3.14159 3.14159 '
p1759
I2
F0.699999988079071
F0.10000000149011612
F0.15000000596046448
(I00
S'0 2'
p1760
(I00
S'1 2'
p1761
(I01
I2
tp1762
(I00
S'1 1'
p1763
(I00
S'0 1'
p1764
(I00
S'1 2'
p1765
(I01
I0
tp1766
(I01
I0
tp1767
tp1768
(I01
I1
tp1769
tp1770
(I00
S'0 1'
p1771
(I01
I1
tp1772
(I01
I0
tp1773
tp1774
tp1775
tp1776
(I00
S'0 1'
p1777
(I00
S'0 1'
p1778
(I00
S'0 2'
p1779
(I00
S'1 1'
p1780
(I01
I1
tp1781
(I01
I1
tp1782
tp1783
(I01
I2
tp1784
tp1785
(I00
S'0 2'
p1786
(I01
I1
tp1787
(I01
I1
tp1788
tp1789
tp1790
(I00
S'0 2'
p1791
(I00
S'0 2'
p1792
(I01
I1
tp1793
(I00
S'1 1'
p1794
(I01
I2
tp1795
(I01
I0
tp1796
tp1797
tp1798
(I00
S'0 1'
p1799
(I01
I2
tp1800
(I01
I1
tp1801
tp1802
tp1803
tp1804
tp1805
tp1806
bag1
(tRp1807
(S'-3.14159 3.14159 -3.14159 3.14159 '
p1808
I2
F0.699999988079071
F0.10000000149011612
F0.15000000596046448
(I00
S'0 1'
p1809
(I00
S'0 2'
p1810
(I01
I2
tp1811
(I00
S'0 1'
p1812
(I01
I0
tp1813
(I00
S'0 1'
p1814
(I01
I0
tp1815
(I01
I0
tp1816
tp1817
tp1818
tp1819
(I00
S'0 2'
p1820
(I00
S'0 1'
p1821
(I00
S'1 2'
p1822
(I00
S'1 1'
p1823
(I01
I1
tp1824
(I01
I2
tp1825
tp1826
(I00
S'1 1'
p1827
(I01
I1
tp1828
(I01
I2
tp1829
tp1830
tp1831
(I01
I1
tp1832
tp1833
(I01
I1
tp1834
tp1835
tp1836
tp1837
bag1
(tRp1838
(S'-3.14159 3.14159 -3.14159 3.14159 '
p1839
I2
F0.699999988079071
F0.10000000149011612
F0.15000000596046448
(I00
S'0 2'
p1840
(I00
S'1 2'
p1841
(I01
I2
tp1842
(I00
S'1 1'
p1843
(I00
S'0 1'
p1844
(I00
S'1 2'
p1845
(I01
I0
tp1846
(I01
I0
tp1847
tp1848
(I01
I1
tp1849
tp1850
(I00
S'0 1'
p1851
(I01
I1
tp1852
(I01
I0
tp1853
tp1854
tp1855
tp1856
(I00
S'0 1'
p1857
(I00
S'0 1'
p1858
(I00
S'0 2'
p1859
(I00
S'1 1'
p1860
(I01
I1
tp1861
(I01
I1
tp1862
tp1863
(I01
I2
tp1864
tp1865
(I00
S'0 2'
p1866
(I01
I1
tp1867
(I01
I1
tp1868
tp1869
tp1870
(I00
S'0 2'
p1871
(I00
S'0 2'
p1872
(I01
I1
tp1873
(I00
S'1 1'
p1874
(I01
I2
tp1875
(I01
I0
tp1876
tp1877
tp1878
(I00
S'0 1'
p1879
(I01
I2
tp1880
(I01
I1
tp1881
tp1882
tp1883
tp1884
tp1885
tp1886
bag1
(tRp1887
(S'-3.14159 3.14159 -3.14159 3.14159 '
p1888
I2
F0.699999988079071
F0.10000000149011612
F0.15000000596046448
(I00
S'0 2'
p1889
(I00
S'1 2'
p1890
(I01
I2
tp1891
(I00
S'0 1'
p1892
(I00
S'0 1'
p1893
(I00
S'1 2'
p1894
(I01
I0
tp1895
(I01
I1
tp1896
tp1897
(I00
S'0 1'
p1898
(I01
I0
tp1899
(I01
I1
tp1900
tp1901
tp1902
(I00
S'0 1'
p1903
(I01
I0
tp1904
(I01
I0
tp1905
tp1906
tp1907
tp1908
(I00
S'1 2'
p1909
(I00
S'0 1'
p1910
(I00
S'0 2'
p1911
(I00
S'1 1'
p1912
(I01
I1
tp1913
(I01
I2
tp1914
tp1915
(I01
I2
tp1916
tp1917
(I00
S'0 2'
p1918
(I01
I1
tp1919
(I01
I1
tp1920
tp1921
tp1922
(I01
I1
tp1923
tp1924
tp1925
tp1926
bag1
(tRp1927
(S'-3.14159 3.14159 -3.14159 3.14159 '
p1928
I2
F0.699999988079071
F0.10000000149011612
F0.15000000596046448
(I00
S'0 2'
p1929
(I00
S'1 2'
p1930
(I01
I2
tp1931
(I00
S'1 1'
p1932
(I00
S'1 1'
p1933
(I00
S'1 2'
p1934
(I01
I1
tp1935
(I01
I1
tp1936
tp1937
(I01
I1
tp1938
tp1939
(I00
S'0 1'
p1940
(I01
I1
tp1941
(I01
I0
tp1942
tp1943
tp1944
tp1945
(I00
S'1 2'
p1946
(I00
S'0 1'
p1947
(I00
S'0 2'
p1948
(I00
S'1 1'
p1949
(I01
I1
tp1950
(I01
I1
tp1951
tp1952
(I01
I2
tp1953
tp1954
(I01
I1
tp1955
tp1956
(I01
I1
tp1957
tp1958
tp1959
tp1960
bag1
(tRp1961
(S'-3.14159 3.14159 -3.14159 3.14159 '
p1962
I2
F0.699999988079071
F0.10000000149011612
F0.15000000596046448
(I00
S'0 2'
p1963
(I00
S'1 2'
p1964
(I01
I2
tp1965
(I00
S'1 1'
p1966
(I00
S'0 1'
p1967
(I00
S'1 2'
p1968
(I01
I0
tp1969
(I01
I0
tp1970
tp1971
(I01
I1
tp1972
tp1973
(I00
S'0 1'
p1974
(I01
I1
tp1975
(I01
I0
tp1976
tp1977
tp1978
tp1979
(I00
S'0 1'
p1980
(I00
S'0 1'
p1981
(I00
S'0 2'
p1982
(I00
S'1 1'
p1983
(I01
I1
tp1984
(I01
I1
tp1985
tp1986
(I01
I2
tp1987
tp1988
(I00
S'0 2'
p1989
(I01
I1
tp1990
(I01
I1
tp1991
tp1992
tp1993
(I00
S'0 2'
p1994
(I00
S'0 2'
p1995
(I01
I1
tp1996
(I00
S'1 1'
p1997
(I01
I2
tp1998
(I01
I0
tp1999
tp2000
tp2001
(I00
S'0 1'
p2002
(I01
I2
tp2003
(I01
I1
tp2004
tp2005
tp2006
tp2007
tp2008
tp2009
bag1
(tRp2010
(S'-3.14159 3.14159 -3.14159 3.14159 '
p2011
I2
F0.699999988079071
F0.10000000149011612
F0.15000000596046448
(I00
S'0 2'
p2012
(I00
S'1 2'
p2013
(I01
I2
tp2014
(I00
S'0 1'
p2015
(I00
S'0 1'
p2016
(I00
S'1 2'
p2017
(I01
I0
tp2018
(I01
I1
tp2019
tp2020
(I00
S'0 1'
p2021
(I01
I0
tp2022
(I01
I0
tp2023
tp2024
tp2025
(I00
S'0 1'
p2026
(I01
I1
tp2027
(I01
I0
tp2028
tp2029
tp2030
tp2031
(I00
S'0 2'
p2032
(I00
S'0 1'
p2033
(I00
S'0 2'
p2034
(I00
S'1 1'
p2035
(I01
I1
tp2036
(I01
I1
tp2037
tp2038
(I01
I2
tp2039
tp2040
(I01
I1
tp2041
tp2042
(I01
I1
tp2043
tp2044
tp2045
tp2046
bag1
(tRp2047
(S'-3.14159 3.14159 -3.14159 3.14159 '
p2048
I2
F0.699999988079071
F0.10000000149011612
F0.15000000596046448
(I00
S'0 2'
p2049
(I00
S'1 2'
p2050
(I01
I2
tp2051
(I00
S'1 1'
p2052
(I00
S'0 1'
p2053
(I00
S'1 2'
p2054
(I01
I1
tp2055
(I00
S'1 2'
p2056
(I01
I0
tp2057
(I01
I0
tp2058
tp2059
tp2060
(I01
I1
tp2061
tp2062
(I00
S'0 1'
p2063
(I01
I1
tp2064
(I01
I0
tp2065
tp2066
tp2067
tp2068
(I00
S'0 1'
p2069
(I00
S'0 1'
p2070
(I00
S'0 2'
p2071
(I00
S'1 1'
p2072
(I01
I1
tp2073
(I01
I1
tp2074
tp2075
(I01
I2
tp2076
tp2077
(I00
S'0 2'
p2078
(I01
I1
tp2079
(I01
I2
tp2080
tp2081
tp2082
(I00
S'0 2'
p2083
(I01
I2
tp2084
(I00
S'0 1'
p2085
(I01
I2
tp2086
(I01
I1
tp2087
tp2088
tp2089
tp2090
tp2091
tp2092
bag1
(tRp2093
(S'-3.14159 3.14159 -3.14159 3.14159 '
p2094
I2
F0.699999988079071
F0.10000000149011612
F0.15000000596046448
(I00
S'0 2'
p2095
(I00
S'1 2'
p2096
(I01
I2
tp2097
(I00
S'1 1'
p2098
(I00
S'0 2'
p2099
(I00
S'1 2'
p2100
(I01
I0
tp2101
(I00
S'1 2'
p2102
(I01
I1
tp2103
(I01
I0
tp2104
tp2105
tp2106
(I01
I2
tp2107
tp2108
(I00
S'1 1'
p2109
(I01
I1
tp2110
(I01
I0
tp2111
tp2112
tp2113
tp2114
(I00
S'0 1'
p2115
(I00
S'0 1'
p2116
(I00
S'0 2'
p2117
(I00
S'1 1'
p2118
(I01
I1
tp2119
(I01
I1
tp2120
tp2121
(I01
I2
tp2122
tp2123
(I00
S'0 2'
p2124
(I01
I1
tp2125
(I01
I1
tp2126
tp2127
tp2128
(I00
S'0 2'
p2129
(I00
S'0 2'
p2130
(I01
I1
tp2131
(I00
S'1 1'
p2132
(I01
I1
tp2133
(I01
I0
tp2134
tp2135
tp2136
(I00
S'0 2'
p2137
(I01
I2
tp2138
(I01
I1
tp2139
tp2140
tp2141
tp2142
tp2143
tp2144
bag1
(tRp2145
(S'-3.14159 3.14159 -3.14159 3.14159 '
p2146
I2
F0.699999988079071
F0.10000000149011612
F0.15000000596046448
(I00
S'0 2'
p2147
(I00
S'1 2'
p2148
(I01
I2
tp2149
(I00
S'1 1'
p2150
(I00
S'0 1'
p2151
(I00
S'1 2'
p2152
(I01
I1
tp2153
(I01
I1
tp2154
tp2155
(I01
I1
tp2156
tp2157
(I00
S'0 1'
p2158
(I01
I0
tp2159
(I01
I0
tp2160
tp2161
tp2162
tp2163
(I00
S'0 1'
p2164
(I00
S'0 1'
p2165
(I00
S'0 2'
p2166
(I00
S'1 1'
p2167
(I01
I1
tp2168
(I01
I1
tp2169
tp2170
(I01
I2
tp2171
tp2172
(I00
S'0 2'
p2173
(I01
I1
tp2174
(I01
I1
tp2175
tp2176
tp2177
(I00
S'0 2'
p2178
(I00
S'0 2'
p2179
(I01
I1
tp2180
(I01
I2
tp2181
tp2182
(I00
S'0 2'
p2183
(I01
I2
tp2184
(I01
I1
tp2185
tp2186
tp2187
tp2188
tp2189
tp2190
ba.cnumpy.core.multiarray
_reconstruct
p2191
(cnumpy
ndarray
p2192
(I0
tp2193
S'b'
p2194
tp2195
Rp2196
(I1
(I50
tp2197
cnumpy
dtype
p2198
(S'f8'
p2199
I0
I1
tp2200
Rp2201
(I3
S'<'
p2202
NNNI-1
I-1
I0
tp2203
bI00
S'\x00\x00\x00\x00\x00\xb0s@\x00\x00\x00\x00\x00 ~@\x00\x00\x00\x00\x00\xf8\x80@\x00\x00\x00\x00\x00(\x83@\x00\x00\x00\x00\x000\x83@\x00\x00\x00\x00\x000\x83@\x00\x00\x00\x00\x00\x00\x85@\x00\x00\x00\x00\x00\x00\x85@\x00\x00\x00\x00\x00\x00\x85@\x00\x00\x00\x00\x00\x00\x85@\x00\x00\x00\x00\x00\xd8\x86@\x00\x00\x00\x00\x00\xe8\x86@\x00\x00\x00\x00\x00\xe8\x86@\x00\x00\x00\x00\x00\xe8\x86@\x00\x00\x00\x00\x00\xe8\x86@\x00\x00\x00\x00\x00\xe8\x86@\x00\x00\x00\x00\x00\xe8\x86@\x00\x00\x00\x00\x00\xe8\x86@\x00\x00\x00\x00\x00\xe8\x86@\x00\x00\x00\x00\x00\xe8\x86@\x00\x00\x00\x00\x00\xe8\x86@\x00\x00\x00\x00\x00\xe8\x86@\x00\x00\x00\x00\x00h\x87@\x00\x00\x00\x00\x00\xa8\x89@\x00\x00\x00\x00\x00p\x8a@\x00\x00\x00\x00\x00\x80\x8a@\x00\x00\x00\x00\x00\x80\x8a@\x00\x00\x00\x00\x00\x80\x8a@\x00\x00\x00\x00\x00\x80\x8a@\x00\x00\x00\x00\x00\x80\x8a@\x00\x00\x00\x00\x00\x80\x8a@\x00\x00\x00\x00\x00\x80\x8a@\x00\x00\x00\x00\x00\x90\x8a@\x00\x00\x00\x00\x00\x90\x8a@\x00\x00\x00\x00\x00\xa8\x8a@\x00\x00\x00\x00\x00\x08\x8c@\x00\x00\x00\x00\x00\x08\x8c@\x00\x00\x00\x00\x00\x10\x8c@\x00\x00\x00\x00\x00\x10\x8c@\x00\x00\x00\x00\x00 \x8c@\x00\x00\x00\x00\x00 \x8c@\x00\x00\x00\x00\x00 \x8c@\x00\x00\x00\x00\x00 \x8c@\x00\x00\x00\x00\x00 \x8c@\x00\x00\x00\x00\x000\x8c@\x00\x00\x00\x00\x000\x8c@\x00\x00\x00\x00\x000\x8c@\x00\x00\x00\x00\x000\x8c@\x00\x00\x00\x00\x000\x8c@\x00\x00\x00\x00\x008\x8c@'
p2204
tp2205
b.